(dp0
Vflanigans
p1
(lp2
(I0
I0
tp3
a(I0
I0
tp4
a(I24
I24
tp5
a(I275
I308
tp6
a(I0
I0
tp7
a(I2570
I2579
tp8
a(I11
I11
tp9
a(I743
I779
tp10
a(I1
I1
tp11
a(I21
I21
tp12
asVsonic
p13
(lp14
(I3
I3
tp15
a(I152
I157
tp16
a(I235
I235
tp17
a(I352
I381
tp18
a(I0
I0
tp19
a(I675
I820
tp20
a(I188
I199
tp21
a(I760
I773
tp22
a(I538
I563
tp23
a(I407
I408
tp24
a(I768
I811
tp25
a(I4
I4
tp26
a(I7
I7
tp27
a(I2410
I2470
tp28
a(I649
I675
tp29
a(I880
I898
tp30
a(I473
I488
tp31
a(I392
I431
tp32
a(I20
I20
tp33
a(I496
I533
tp34
a(I118
I126
tp35
a(I1
I1
tp36
a(I1832
I1931
tp37
a(I1617
I1682
tp38
a(I1730
I1808
tp39
a(I716
I738
tp40
a(I1355
I1409
tp41
a(I525
I572
tp42
a(I1449
I1499
tp43
a(I1324
I1342
tp44
a(I570
I594
tp45
a(I2197
I2278
tp46
a(I333
I333
tp47
a(I740
I770
tp48
a(I182
I221
tp49
a(I35
I35
tp50
a(I385
I387
tp51
a(I0
I0
tp52
a(I33
I33
tp53
a(I0
I0
tp54
a(I15
I15
tp55
a(I6
I6
tp56
a(I9
I9
tp57
a(I4
I4
tp58
a(I15
I15
tp59
a(I6
I6
tp60
a(I34
I34
tp61
a(I5
I7
tp62
a(I258
I258
tp63
a(I261
I264
tp64
a(I1948
I2010
tp65
a(I1864
I1905
tp66
a(I1530
I1574
tp67
a(I287
I320
tp68
a(I7
I7
tp69
a(I3193
I3266
tp70
a(I10
I10
tp71
a(I15
I15
tp72
a(I869
I918
tp73
a(I507
I532
tp74
a(I195
I197
tp75
a(I92
I110
tp76
a(I201
I208
tp77
a(I0
I0
tp78
a(I110
I117
tp79
a(I2284
I2332
tp80
a(I899
I942
tp81
a(I595
I635
tp82
a(I295
I307
tp83
a(I835
I864
tp84
a(I1076
I1107
tp85
a(I587
I599
tp86
a(I224
I237
tp87
a(I120
I120
tp88
a(I904
I963
tp89
a(I277
I283
tp90
a(I252
I264
tp91
a(I1323
I1369
tp92
a(I1209
I1231
tp93
a(I424
I442
tp94
a(I8
I8
tp95
a(I287
I287
tp96
a(I0
I0
tp97
a(I1112
I1145
tp98
a(I727
I755
tp99
a(I380
I382
tp100
a(I371
I426
tp101
a(I683
I725
tp102
a(I122
I150
tp103
a(I189
I207
tp104
a(I298
I318
tp105
a(I304
I304
tp106
a(I552
I571
tp107
a(I8
I8
tp108
a(I183
I189
tp109
a(I526
I568
tp110
a(I83
I83
tp111
a(I857
I876
tp112
a(I580
I589
tp113
a(I0
I0
tp114
a(I2
I2
tp115
a(I684
I703
tp116
a(I962
I993
tp117
a(I20
I33
tp118
a(I563
I585
tp119
a(I800
I823
tp120
a(I403
I425
tp121
a(I75
I75
tp122
a(I223
I234
tp123
a(I10
I10
tp124
a(I345
I345
tp125
a(I24
I24
tp126
a(I701
I725
tp127
a(I899
I910
tp128
a(I4
I4
tp129
a(I36
I36
tp130
a(I64
I64
tp131
a(I353
I355
tp132
a(I0
I0
tp133
a(I4961
I5153
tp134
a(I7404
I7470
tp135
a(I1791
I1869
tp136
a(I214
I301
tp137
a(I3300
I3345
tp138
a(I0
I0
tp139
a(I0
I0
tp140
a(I3430
I3643
tp141
a(I3
I3
tp142
a(I6
I6
tp143
a(I2874
I2982
tp144
a(I4
I4
tp145
a(I49
I49
tp146
a(I1
I1
tp147
a(I0
I0
tp148
a(I1
I1
tp149
a(I1
I1
tp150
a(I0
I0
tp151
a(I0
I0
tp152
a(I110
I110
tp153
a(I7
I7
tp154
a(I6
I6
tp155
a(I1
I1
tp156
a(I293
I304
tp157
a(I9
I9
tp158
a(I3
I3
tp159
a(I274
I289
tp160
a(I260
I272
tp161
a(I689
I742
tp162
a(I492
I535
tp163
a(I205
I207
tp164
a(I503
I503
tp165
a(I316
I353
tp166
a(I634
I663
tp167
a(I68
I69
tp168
a(I108
I133
tp169
a(I1
I1
tp170
a(I204
I204
tp171
a(I4139
I4288
tp172
a(I1705
I1767
tp173
a(I2619
I2752
tp174
a(I2748
I2856
tp175
a(I5247
I5440
tp176
a(I2503
I2624
tp177
a(I2321
I2478
tp178
a(I2749
I2847
tp179
a(I6220
I6436
tp180
a(I2060
I2169
tp181
a(I4264
I4416
tp182
a(I4481
I4645
tp183
a(I1614
I1743
tp184
a(I165
I165
tp185
a(I4603
I4787
tp186
a(I2547
I2616
tp187
a(I1512
I1582
tp188
a(I2012
I2094
tp189
a(I4566
I4756
tp190
a(I3047
I3155
tp191
a(I1675
I1720
tp192
a(I2526
I2569
tp193
a(I2926
I3065
tp194
a(I2057
I2137
tp195
a(I2988
I3112
tp196
a(I3432
I3603
tp197
a(I2597
I2713
tp198
a(I1621
I1660
tp199
a(I2036
I2125
tp200
a(I2188
I2333
tp201
a(I257
I284
tp202
a(I877
I909
tp203
a(I273
I284
tp204
a(I1
I1
tp205
a(I865
I940
tp206
a(I166
I190
tp207
a(I97
I109
tp208
a(I94
I111
tp209
a(I169
I178
tp210
a(I64
I74
tp211
a(I88
I88
tp212
a(I51
I52
tp213
a(I19
I21
tp214
a(I2771
I2848
tp215
a(I773
I805
tp216
a(I29
I29
tp217
a(I7
I7
tp218
a(I0
I0
tp219
a(I381
I426
tp220
a(I80
I80
tp221
a(I159
I159
tp222
a(I427
I435
tp223
a(I218
I220
tp224
a(I0
I0
tp225
a(I169
I169
tp226
a(I43
I43
tp227
a(I156
I156
tp228
a(I50
I56
tp229
a(I0
I0
tp230
a(I0
I0
tp231
a(I390
I434
tp232
a(I486
I534
tp233
a(I1815
I1924
tp234
a(I3141
I3250
tp235
a(I690
I709
tp236
a(I276
I278
tp237
a(I1
I1
tp238
a(I1464
I1554
tp239
a(I2
I2
tp240
a(I3
I3
tp241
a(I1539
I1597
tp242
a(I23
I23
tp243
a(I12
I12
tp244
a(I19
I19
tp245
a(I1
I1
tp246
a(I24
I24
tp247
a(I3
I3
tp248
a(I0
I0
tp249
a(I259
I281
tp250
a(I2
I2
tp251
a(I10
I10
tp252
a(I0
I0
tp253
a(I35
I35
tp254
a(I1655
I1724
tp255
a(I0
I0
tp256
a(I439
I449
tp257
a(I1085
I1115
tp258
a(I0
I0
tp259
a(I1895
I1933
tp260
a(I5
I5
tp261
a(I858
I900
tp262
a(I1339
I1370
tp263
a(I275
I335
tp264
a(I723
I748
tp265
a(I1145
I1171
tp266
a(I383
I385
tp267
a(I604
I627
tp268
a(I998
I1023
tp269
a(I986
I1002
tp270
a(I826
I860
tp271
a(I8
I8
tp272
a(I2
I2
tp273
a(I820
I845
tp274
a(I1
I1
tp275
a(I648
I656
tp276
a(I1655
I1732
tp277
a(I1656
I1711
tp278
a(I1580
I1666
tp279
a(I1151
I1195
tp280
a(I527
I549
tp281
a(I608
I636
tp282
a(I190
I196
tp283
a(I1281
I1330
tp284
a(I481
I516
tp285
a(I587
I629
tp286
a(I1081
I1117
tp287
a(I467
I475
tp288
a(I722
I752
tp289
a(I1669
I1711
tp290
a(I656
I687
tp291
a(I308
I308
tp292
a(I555
I588
tp293
a(I82
I82
tp294
a(I1558
I1602
tp295
a(I4
I4
tp296
a(I8
I21
tp297
a(I3
I3
tp298
a(I0
I0
tp299
a(I9
I9
tp300
a(I204
I212
tp301
a(I11
I11
tp302
a(I32
I34
tp303
a(I96
I97
tp304
a(I98
I109
tp305
a(I137
I137
tp306
a(I485
I501
tp307
a(I926
I952
tp308
a(I665
I690
tp309
a(I2126
I2234
tp310
a(I5
I5
tp311
a(I761
I798
tp312
a(I913
I961
tp313
a(I571
I622
tp314
a(I31
I31
tp315
a(I1794
I1687
tp316
a(I814
I841
tp317
a(I227
I287
tp318
a(I677
I697
tp319
a(I738
I739
tp320
a(I0
I0
tp321
a(I95
I95
tp322
a(I21
I83
tp323
a(I292
I297
tp324
a(I0
I0
tp325
a(I85
I89
tp326
a(I188
I192
tp327
a(I267
I279
tp328
a(I84
I99
tp329
a(I7
I7
tp330
a(I521
I553
tp331
a(I38
I38
tp332
a(I5
I5
tp333
a(I5
I5
tp334
a(I318
I331
tp335
a(I498
I539
tp336
a(I124
I141
tp337
a(I325
I368
tp338
a(I346
I364
tp339
a(I1
I1
tp340
a(I254
I258
tp341
a(I114
I125
tp342
a(I343
I365
tp343
a(I418
I462
tp344
a(I316
I381
tp345
a(I7
I7
tp346
a(I438
I509
tp347
a(I0
I0
tp348
a(I1
I1
tp349
a(I328
I350
tp350
a(I28
I28
tp351
a(I6
I6
tp352
a(I577
I601
tp353
a(I7
I9
tp354
a(I702
I743
tp355
a(I637
I666
tp356
a(I345
I420
tp357
a(I324
I341
tp358
a(I1
I1
tp359
a(I2
I2
tp360
a(I237
I238
tp361
a(I360
I409
tp362
a(I321
I334
tp363
a(I279
I298
tp364
a(I573
I600
tp365
a(I236
I241
tp366
a(I438
I465
tp367
a(I841
I888
tp368
a(I579
I587
tp369
a(I8
I8
tp370
a(I423
I514
tp371
a(I1532
I1578
tp372
a(I762
I797
tp373
a(I1516
I1546
tp374
a(I351
I356
tp375
a(I1530
I1566
tp376
a(I763
I770
tp377
a(I960
I993
tp378
a(I2447
I2477
tp379
a(I347
I352
tp380
a(I1
I1
tp381
a(I13
I14
tp382
a(I469
I494
tp383
a(I8
I8
tp384
a(I22
I22
tp385
a(I19
I19
tp386
a(I17
I18
tp387
a(I1743
I1817
tp388
a(I1412
I1490
tp389
a(I2078
I2129
tp390
a(I1235
I1275
tp391
a(I2339
I2432
tp392
a(I1357
I1445
tp393
a(I1361
I1405
tp394
a(I1291
I1350
tp395
a(I1192
I1231
tp396
a(I1867
I1922
tp397
a(I1532
I1608
tp398
a(I702
I722
tp399
a(I302
I315
tp400
a(I1845
I1877
tp401
a(I1025
I1043
tp402
a(I803
I817
tp403
a(I1224
I1248
tp404
a(I841
I864
tp405
a(I1389
I1441
tp406
a(I1413
I1444
tp407
a(I975
I997
tp408
a(I12
I12
tp409
a(I139
I139
tp410
a(I331
I337
tp411
a(I218
I223
tp412
a(I700
I721
tp413
a(I7
I7
tp414
a(I855
I876
tp415
a(I11
I11
tp416
a(I4
I4
tp417
a(I1240
I1244
tp418
a(I458
I468
tp419
a(I967
I992
tp420
a(I41
I41
tp421
a(I774
I784
tp422
a(I3
I3
tp423
a(I272
I275
tp424
a(I3
I3
tp425
a(I7
I7
tp426
a(I2245
I2343
tp427
a(I1937
I1982
tp428
a(I409
I409
tp429
a(I650
I673
tp430
a(I1300
I1329
tp431
a(I1797
I1845
tp432
a(I1955
I2008
tp433
a(I2395
I2457
tp434
a(I731
I732
tp435
a(I2301
I2379
tp436
a(I457
I488
tp437
a(I568
I579
tp438
a(I4
I4
tp439
a(I3
I3
tp440
a(I33
I33
tp441
a(I0
I0
tp442
a(I1848
I1941
tp443
a(I1512
I1569
tp444
a(I1180
I1226
tp445
a(I1034
I1074
tp446
a(I1316
I1364
tp447
a(I504
I569
tp448
a(I13
I14
tp449
a(I392
I392
tp450
a(I33
I33
tp451
a(I1
I1
tp452
a(I2
I2
tp453
a(I956
I995
tp454
a(I2
I2
tp455
a(I595
I610
tp456
a(I673
I673
tp457
a(I10
I10
tp458
a(I6591
I6647
tp459
a(I587
I597
tp460
a(I504
I515
tp461
a(I606
I644
tp462
a(I2
I2
tp463
a(I2806
I2874
tp464
a(I972
I1007
tp465
a(I5
I5
tp466
a(I732
I756
tp467
a(I3
I3
tp468
a(I304
I311
tp469
a(I362
I389
tp470
a(I558
I609
tp471
a(I293
I305
tp472
a(I209
I217
tp473
a(I957
I985
tp474
a(I3
I3
tp475
a(I1263
I1296
tp476
a(I808
I821
tp477
a(I506
I591
tp478
a(I18
I18
tp479
a(I340
I350
tp480
a(I303
I320
tp481
a(I488
I493
tp482
a(I658
I680
tp483
a(I290
I292
tp484
a(I2
I2
tp485
a(I405
I405
tp486
a(I276
I276
tp487
a(I488
I526
tp488
a(I251
I256
tp489
a(I674
I704
tp490
a(I997
I1021
tp491
a(I158
I160
tp492
a(I421
I422
tp493
a(I906
I908
tp494
a(I137
I137
tp495
a(I315
I369
tp496
a(I1498
I1523
tp497
a(I1991
I2052
tp498
a(I2717
I2840
tp499
a(I1049
I1075
tp500
a(I1868
I1917
tp501
a(I531
I568
tp502
a(I703
I733
tp503
a(I864
I891
tp504
a(I1404
I1448
tp505
a(I1763
I1784
tp506
a(I1380
I1415
tp507
a(I503
I506
tp508
a(I1184
I1209
tp509
a(I1783
I1783
tp510
a(I112
I112
tp511
a(I129
I192
tp512
a(I669
I717
tp513
a(I28
I28
tp514
a(I8
I8
tp515
a(I51
I51
tp516
a(I39
I40
tp517
a(I4
I4
tp518
a(I0
I0
tp519
a(I237
I319
tp520
a(I1
I1
tp521
a(I191
I194
tp522
a(I611
I631
tp523
a(I970
I987
tp524
a(I804
I823
tp525
a(I806
I814
tp526
a(I626
I641
tp527
a(I3
I3
tp528
a(I1
I1
tp529
a(I5
I5
tp530
a(I6
I6
tp531
a(I364
I364
tp532
a(I0
I0
tp533
a(I422
I457
tp534
a(I179
I188
tp535
a(I118
I118
tp536
a(I1
I1
tp537
a(I858
I907
tp538
a(I149
I154
tp539
a(I639
I665
tp540
a(I1373
I1428
tp541
a(I946
I989
tp542
a(I861
I895
tp543
a(I10
I10
tp544
a(I203
I203
tp545
a(I132
I132
tp546
a(I0
I0
tp547
a(I6
I6
tp548
a(I3
I3
tp549
a(I9
I9
tp550
a(I161
I177
tp551
a(I169
I175
tp552
a(I594
I617
tp553
a(I556
I564
tp554
a(I204
I225
tp555
a(I0
I0
tp556
a(I388
I390
tp557
a(I641
I667
tp558
a(I211
I228
tp559
a(I903
I1016
tp560
a(I850
I872
tp561
a(I259
I277
tp562
a(I139
I149
tp563
a(I1
I1
tp564
a(I380
I380
tp565
a(I2317
I2367
tp566
a(I425
I425
tp567
a(I696
I716
tp568
a(I3919
I4016
tp569
a(I0
I0
tp570
a(I803
I821
tp571
a(I525
I538
tp572
a(I492
I504
tp573
a(I691
I731
tp574
a(I1292
I1345
tp575
a(I962
I996
tp576
a(I1327
I1369
tp577
a(I1239
I1262
tp578
a(I954
I1017
tp579
a(I1456
I1493
tp580
a(I487
I517
tp581
a(I735
I778
tp582
a(I888
I903
tp583
a(I1285
I1318
tp584
a(I1719
I1817
tp585
a(I844
I865
tp586
a(I1190
I1220
tp587
a(I1204
I1215
tp588
a(I451
I468
tp589
a(I12
I12
tp590
a(I24
I24
tp591
a(I1
I1
tp592
a(I179
I179
tp593
a(I694
I702
tp594
a(I1
I2
tp595
a(I836
I850
tp596
a(I399
I417
tp597
a(I1748
I1779
tp598
a(I1
I2
tp599
a(I1522
I1563
tp600
a(I921
I958
tp601
a(I3070
I3122
tp602
a(I322
I328
tp603
a(I5
I5
tp604
a(I3648
I3817
tp605
a(I2283
I2422
tp606
a(I2015
I2093
tp607
a(I1627
I1652
tp608
a(I2544
I2606
tp609
a(I900
I929
tp610
a(I4344
I4424
tp611
a(I1296
I1345
tp612
a(I1412
I1484
tp613
a(I3492
I3633
tp614
a(I1975
I2060
tp615
a(I2932
I2996
tp616
a(I2865
I2952
tp617
a(I1603
I1644
tp618
a(I2831
I2922
tp619
a(I1690
I1793
tp620
a(I1338
I1367
tp621
a(I1937
I1989
tp622
a(I1993
I2066
tp623
a(I2118
I2162
tp624
a(I738
I775
tp625
a(I1886
I1934
tp626
a(I2539
I2619
tp627
a(I2329
I2409
tp628
a(I3123
I3225
tp629
a(I1266
I1324
tp630
a(I3544
I3644
tp631
a(I1758
I1806
tp632
a(I1685
I1742
tp633
a(I2828
I2925
tp634
a(I431
I466
tp635
a(I535
I555
tp636
a(I608
I636
tp637
a(I467
I488
tp638
a(I4
I4
tp639
a(I441
I449
tp640
a(I0
I0
tp641
a(I322
I323
tp642
a(I1087
I1142
tp643
a(I569
I602
tp644
a(I1092
I1156
tp645
a(I10
I10
tp646
a(I0
I0
tp647
a(I696
I727
tp648
a(I2
I2
tp649
a(I642
I654
tp650
a(I18
I18
tp651
a(I0
I0
tp652
a(I4
I4
tp653
a(I706
I744
tp654
a(I1113
I1149
tp655
a(I871
I920
tp656
a(I796
I812
tp657
a(I408
I416
tp658
a(I33
I33
tp659
a(I306
I306
tp660
a(I21
I21
tp661
a(I8
I8
tp662
a(I0
I0
tp663
a(I1
I1
tp664
a(I4
I4
tp665
a(I18
I18
tp666
a(I0
I0
tp667
a(I310
I328
tp668
a(I294
I333
tp669
a(I2
I2
tp670
a(I5514
I5599
tp671
a(I1697
I1930
tp672
a(I2625
I2742
tp673
a(I6423
I6480
tp674
a(I0
I0
tp675
a(I3263
I3385
tp676
a(I3
I3
tp677
a(I131
I139
tp678
a(I1564
I1690
tp679
a(I14
I14
tp680
a(I1852
I1971
tp681
a(I4
I4
tp682
a(I691
I698
tp683
a(I11
I21
tp684
a(I618
I633
tp685
a(I483
I522
tp686
a(I15
I15
tp687
a(I1
I1
tp688
a(I280
I295
tp689
a(I754
I775
tp690
a(I1463
I1492
tp691
a(I2232
I2280
tp692
a(I2205
I2250
tp693
a(I1530
I1566
tp694
a(I2
I2
tp695
a(I128
I129
tp696
a(I0
I0
tp697
a(I0
I0
tp698
a(I9
I24
tp699
a(I6
I6
tp700
a(I0
I0
tp701
a(I0
I0
tp702
a(I1583
I1627
tp703
a(I3497
I3582
tp704
a(I1832
I1892
tp705
a(I31
I31
tp706
a(I3
I3
tp707
a(I2
I2
tp708
a(I5094
I5215
tp709
a(I340
I342
tp710
a(I26
I26
tp711
a(I3
I3
tp712
a(I1
I1
tp713
a(I9
I9
tp714
a(I14
I14
tp715
a(I2920
I3101
tp716
a(I15742
I15936
tp717
a(I2
I2
tp718
a(I2
I2
tp719
a(I11
I11
tp720
a(I0
I0
tp721
a(I0
I0
tp722
a(I19
I19
tp723
a(I1
I1
tp724
a(I39
I40
tp725
a(I0
I0
tp726
a(I5
I5
tp727
a(I1
I1
tp728
a(I7
I7
tp729
a(I1
I1
tp730
a(I47
I47
tp731
a(I21
I21
tp732
a(I597
I605
tp733
a(I6
I10
tp734
a(I2754
I2790
tp735
a(I1147
I1216
tp736
a(I59
I59
tp737
a(I1
I1
tp738
a(I1635
I1635
tp739
a(I4
I4
tp740
a(I4
I4
tp741
a(I603
I621
tp742
a(I3015
I3077
tp743
a(I3352
I3418
tp744
a(I19
I19
tp745
a(I9
I9
tp746
a(I2
I2
tp747
a(I14590
I15095
tp748
a(I8371
I8706
tp749
a(I6195
I6363
tp750
a(I10769
I11133
tp751
a(I6657
I6788
tp752
a(I2230
I2404
tp753
a(I5225
I5483
tp754
a(I6339
I6635
tp755
a(I6707
I7020
tp756
a(I1420
I1472
tp757
a(I1946
I2024
tp758
a(I3
I3
tp759
a(I22
I22
tp760
a(I0
I0
tp761
a(I93
I93
tp762
a(I0
I0
tp763
a(I81
I81
tp764
a(I5
I6
tp765
a(I4991
I5169
tp766
a(I7393
I7555
tp767
a(I4
I4
tp768
a(I370
I370
tp769
a(I928
I978
tp770
a(I1624
I1678
tp771
a(I2510
I2564
tp772
a(I3
I3
tp773
a(I28
I32
tp774
a(I721
I776
tp775
a(I2261
I2325
tp776
a(I5962
I6106
tp777
a(I2518
I2568
tp778
a(I5
I6
tp779
a(I2753
I2788
tp780
a(I42
I42
tp781
a(I8
I8
tp782
a(I0
I0
tp783
a(I54
I54
tp784
a(I2
I2
tp785
a(I0
I0
tp786
a(I104
I104
tp787
a(I110
I160
tp788
a(I184
I221
tp789
a(I621
I702
tp790
a(I16
I16
tp791
a(I14
I16
tp792
a(I1003
I1043
tp793
a(I10
I10
tp794
a(I39
I39
tp795
a(I20
I20
tp796
a(I2239
I2331
tp797
a(I71
I71
tp798
a(I60
I60
tp799
a(I188
I188
tp800
a(I1
I1
tp801
a(I8
I8
tp802
a(I0
I0
tp803
a(I2
I2
tp804
asVdennys
p805
(lp806
(I0
I0
tp807
a(I13
I13
tp808
a(I488
I500
tp809
a(I1208
I1237
tp810
a(I175
I202
tp811
a(I394
I411
tp812
a(I1
I1
tp813
a(I1603
I1623
tp814
a(I7
I7
tp815
a(I18
I18
tp816
a(I14
I14
tp817
a(I860
I888
tp818
a(I1415
I1440
tp819
a(I90
I102
tp820
a(I1535
I1556
tp821
a(I1572
I1594
tp822
a(I1813
I1852
tp823
a(I734
I757
tp824
a(I1633
I1697
tp825
a(I8
I8
tp826
a(I7
I7
tp827
a(I1414
I1449
tp828
a(I16
I16
tp829
a(I24
I25
tp830
a(I25
I25
tp831
a(I63
I63
tp832
a(I1340
I1370
tp833
a(I8
I8
tp834
a(I17
I17
tp835
a(I33
I33
tp836
a(I1757
I1811
tp837
a(I3
I3
tp838
a(I2
I2
tp839
a(I101
I101
tp840
a(I1
I0
tp841
a(I13
I13
tp842
a(I4
I4
tp843
a(I1082
I1131
tp844
a(I1302
I1345
tp845
a(I7
I7
tp846
a(I769
I780
tp847
a(I481
I490
tp848
a(I866
I899
tp849
a(I0
I0
tp850
a(I2
I2
tp851
a(I0
I0
tp852
a(I2497
I2669
tp853
a(I4940
I5173
tp854
a(I1962
I2040
tp855
a(I3988
I4072
tp856
a(I3777
I3899
tp857
a(I2549
I2592
tp858
a(I3086
I3164
tp859
a(I3964
I4103
tp860
a(I1626
I1647
tp861
a(I1100
I1117
tp862
a(I2075
I2101
tp863
a(I1231
I1271
tp864
a(I1411
I1457
tp865
a(I2677
I2763
tp866
a(I1623
I1671
tp867
a(I1342
I1403
tp868
a(I2026
I2093
tp869
a(I1781
I1825
tp870
a(I1917
I1982
tp871
a(I1397
I1491
tp872
a(I1708
I1786
tp873
a(I855
I881
tp874
a(I2583
I2650
tp875
a(I985
I1008
tp876
a(I2011
I2109
tp877
a(I1710
I1722
tp878
a(I72
I101
tp879
a(I2111
I2171
tp880
a(I11
I11
tp881
a(I1210
I1258
tp882
a(I1184
I1230
tp883
a(I197
I198
tp884
a(I268
I270
tp885
a(I2695
I2819
tp886
a(I2355
I2387
tp887
a(I1544
I1575
tp888
a(I436
I460
tp889
a(I2016
I2089
tp890
a(I2027
I2077
tp891
a(I2458
I2531
tp892
a(I508
I589
tp893
a(I1054
I1110
tp894
a(I1014
I1046
tp895
a(I1623
I1654
tp896
a(I22
I23
tp897
a(I791
I815
tp898
a(I1378
I1435
tp899
a(I2358
I2423
tp900
a(I1441
I1475
tp901
a(I3180
I3268
tp902
a(I0
I0
tp903
a(I1767
I1853
tp904
a(I1
I1
tp905
a(I1386
I1427
tp906
a(I1739
I1789
tp907
a(I2285
I2348
tp908
a(I6
I6
tp909
a(I826
I853
tp910
a(I62
I125
tp911
a(I53
I54
tp912
a(I12
I12
tp913
a(I19
I20
tp914
a(I4
I4
tp915
a(I98
I113
tp916
a(I11
I11
tp917
a(I1
I1
tp918
a(I1125
I1175
tp919
a(I1033
I1077
tp920
a(I1090
I1118
tp921
a(I1192
I1253
tp922
a(I916
I941
tp923
a(I3
I4
tp924
a(I1011
I1041
tp925
a(I809
I850
tp926
a(I12
I12
tp927
a(I749
I774
tp928
a(I1181
I1205
tp929
a(I4
I4
tp930
a(I1338
I1391
tp931
a(I9
I9
tp932
a(I628
I630
tp933
a(I12
I12
tp934
a(I1
I1
tp935
a(I7
I7
tp936
a(I46
I46
tp937
a(I1053
I1101
tp938
a(I1818
I1869
tp939
a(I50
I59
tp940
a(I711
I724
tp941
a(I502
I507
tp942
a(I591
I592
tp943
a(I615
I632
tp944
a(I499
I522
tp945
a(I742
I745
tp946
a(I235
I258
tp947
a(I342
I375
tp948
a(I690
I717
tp949
a(I28
I28
tp950
a(I593
I617
tp951
a(I473
I473
tp952
a(I2
I2
tp953
a(I604
I613
tp954
a(I7
I7
tp955
a(I2
I2
tp956
a(I969
I999
tp957
a(I1054
I1074
tp958
a(I0
I0
tp959
a(I2
I2
tp960
a(I840
I872
tp961
a(I55
I55
tp962
a(I2136
I2181
tp963
a(I1300
I1354
tp964
a(I22
I23
tp965
a(I20
I21
tp966
a(I150
I150
tp967
a(I5856
I6012
tp968
a(I3112
I3160
tp969
a(I413
I428
tp970
a(I1019
I1047
tp971
a(I940
I967
tp972
a(I26
I26
tp973
a(I0
I0
tp974
a(I854
I900
tp975
a(I1
I1
tp976
a(I459
I476
tp977
a(I1176
I1233
tp978
a(I33
I33
tp979
a(I14
I14
tp980
a(I20
I20
tp981
a(I0
I0
tp982
a(I4
I4
tp983
a(I27
I27
tp984
a(I3
I3
tp985
a(I808
I856
tp986
a(I1521
I1547
tp987
a(I212
I215
tp988
a(I1112
I1197
tp989
a(I4
I4
tp990
a(I33
I35
tp991
a(I2
I2
tp992
a(I1
I1
tp993
a(I385
I421
tp994
a(I7
I7
tp995
a(I422
I445
tp996
a(I116
I128
tp997
a(I15
I15
tp998
a(I220
I230
tp999
a(I0
I0
tp1000
a(I5
I5
tp1001
a(I32
I32
tp1002
a(I737
I774
tp1003
a(I577
I585
tp1004
a(I135
I137
tp1005
a(I2396
I2446
tp1006
a(I905
I989
tp1007
a(I954
I978
tp1008
a(I750
I758
tp1009
a(I8
I8
tp1010
a(I326
I333
tp1011
a(I288
I313
tp1012
a(I107
I106
tp1013
a(I451
I462
tp1014
a(I0
I0
tp1015
a(I0
I0
tp1016
a(I780
I792
tp1017
a(I1257
I1296
tp1018
a(I645
I654
tp1019
a(I408
I412
tp1020
a(I970
I978
tp1021
a(I340
I344
tp1022
a(I9
I9
tp1023
a(I4
I4
tp1024
a(I2
I19
tp1025
a(I1060
I1083
tp1026
a(I544
I557
tp1027
a(I744
I746
tp1028
a(I9
I9
tp1029
a(I11
I11
tp1030
a(I900
I902
tp1031
a(I863
I863
tp1032
a(I1895
I1949
tp1033
a(I28
I28
tp1034
a(I700
I700
tp1035
a(I322
I322
tp1036
a(I22
I22
tp1037
a(I1710
I1748
tp1038
a(I1482
I1533
tp1039
a(I1520
I1565
tp1040
a(I2768
I2807
tp1041
a(I2024
I2097
tp1042
a(I2
I2
tp1043
a(I2
I2
tp1044
a(I602
I620
tp1045
a(I452
I488
tp1046
a(I601
I611
tp1047
a(I0
I0
tp1048
a(I0
I0
tp1049
a(I266
I284
tp1050
a(I687
I687
tp1051
a(I16
I17
tp1052
a(I416
I442
tp1053
a(I891
I917
tp1054
a(I377
I379
tp1055
a(I5465
I5682
tp1056
a(I223
I242
tp1057
a(I298
I317
tp1058
a(I685
I689
tp1059
a(I382
I394
tp1060
a(I16
I24
tp1061
a(I555
I579
tp1062
a(I906
I943
tp1063
a(I574
I584
tp1064
a(I1992
I2022
tp1065
a(I902
I936
tp1066
a(I2
I2
tp1067
a(I1
I1
tp1068
a(I0
I0
tp1069
a(I0
I0
tp1070
a(I0
I0
tp1071
a(I3678
I3768
tp1072
a(I2988
I3078
tp1073
a(I4470
I4582
tp1074
a(I1319
I1377
tp1075
a(I4007
I4101
tp1076
a(I5776
I5979
tp1077
a(I1
I1
tp1078
a(I2639
I2730
tp1079
a(I7
I7
tp1080
a(I10
I10
tp1081
a(I1691
I1730
tp1082
a(I6
I6
tp1083
a(I2
I2
tp1084
a(I0
I0
tp1085
a(I0
I0
tp1086
a(I2
I2
tp1087
a(I3777
I3843
tp1088
a(I1893
I1929
tp1089
a(I1809
I1859
tp1090
a(I1
I1
tp1091
a(I30
I30
tp1092
a(I1548
I1574
tp1093
a(I7
I7
tp1094
a(I1119
I1119
tp1095
a(I22
I76
tp1096
a(I2023
I2078
tp1097
a(I5
I9
tp1098
a(I2
I2
tp1099
a(I936
I952
tp1100
a(I1
I1
tp1101
a(I619
I635
tp1102
a(I2
I2
tp1103
a(I0
I0
tp1104
a(I0
I0
tp1105
a(I2
I2
tp1106
a(I1212
I1253
tp1107
a(I958
I966
tp1108
a(I1102
I1126
tp1109
a(I1172
I1191
tp1110
a(I1382
I1398
tp1111
a(I1
I1
tp1112
a(I11
I11
tp1113
a(I1575
I1613
tp1114
a(I1741
I1776
tp1115
a(I2
I2
tp1116
a(I1210
I1221
tp1117
a(I991
I1015
tp1118
a(I0
I0
tp1119
a(I1732
I1771
tp1120
a(I1873
I1928
tp1121
a(I877
I893
tp1122
a(I245
I261
tp1123
a(I1
I1
tp1124
a(I781
I827
tp1125
a(I1169
I1221
tp1126
a(I35
I35
tp1127
a(I1353
I1381
tp1128
a(I1630
I1653
tp1129
a(I18
I18
tp1130
a(I14
I14
tp1131
a(I2
I2
tp1132
a(I10
I10
tp1133
a(I4768
I4824
tp1134
a(I3045
I3108
tp1135
a(I9
I9
tp1136
a(I34
I34
tp1137
a(I997
I1045
tp1138
a(I18
I18
tp1139
a(I32
I33
tp1140
a(I2
I2
tp1141
a(I688
I712
tp1142
a(I29
I29
tp1143
a(I1208
I1223
tp1144
a(I4
I4
tp1145
a(I3
I3
tp1146
a(I3
I3
tp1147
a(I3
I3
tp1148
a(I1
I1
tp1149
a(I10
I10
tp1150
a(I1
I3
tp1151
a(I2003
I2047
tp1152
a(I1
I1
tp1153
a(I1862
I1891
tp1154
a(I47
I47
tp1155
a(I253
I277
tp1156
a(I2128
I2163
tp1157
a(I0
I0
tp1158
a(I1
I1
tp1159
a(I4
I4
tp1160
a(I66
I66
tp1161
a(I2917
I2956
tp1162
a(I996
I1005
tp1163
a(I20
I20
tp1164
a(I0
I0
tp1165
a(I2275
I2300
tp1166
a(I6
I6
tp1167
a(I35
I35
tp1168
a(I27
I27
tp1169
a(I2942
I2968
tp1170
a(I1
I1
tp1171
a(I0
I0
tp1172
a(I1201
I1228
tp1173
a(I2158
I2193
tp1174
a(I1771
I1867
tp1175
a(I72
I72
tp1176
a(I92
I92
tp1177
a(I2457
I2541
tp1178
a(I315
I318
tp1179
a(I1916
I2009
tp1180
a(I2268
I2306
tp1181
a(I2736
I2811
tp1182
a(I4271
I4333
tp1183
a(I1651
I1651
tp1184
a(I1853
I1894
tp1185
a(I2890
I2939
tp1186
a(I2604
I2681
tp1187
a(I76
I76
tp1188
a(I1602
I1634
tp1189
a(I2778
I2822
tp1190
a(I1587
I1610
tp1191
a(I2
I2
tp1192
a(I816
I833
tp1193
a(I1304
I1320
tp1194
a(I1670
I1694
tp1195
a(I1670
I1699
tp1196
a(I1099
I1123
tp1197
a(I3
I3
tp1198
a(I980
I1002
tp1199
a(I1877
I1905
tp1200
a(I171
I198
tp1201
a(I20
I20
tp1202
a(I1500
I1525
tp1203
a(I2790
I2833
tp1204
a(I2667
I2717
tp1205
a(I0
I0
tp1206
a(I1165
I1190
tp1207
a(I4
I4
tp1208
a(I4
I4
tp1209
a(I1527
I1575
tp1210
a(I1030
I1068
tp1211
a(I704
I756
tp1212
a(I894
I910
tp1213
a(I1
I1
tp1214
a(I873
I898
tp1215
a(I4
I4
tp1216
a(I1830
I1883
tp1217
a(I2272
I2317
tp1218
a(I1456
I1461
tp1219
a(I152
I195
tp1220
a(I1230
I1255
tp1221
a(I2346
I2392
tp1222
a(I1176
I1190
tp1223
a(I1737
I1795
tp1224
a(I1590
I1623
tp1225
a(I156
I171
tp1226
a(I1456
I1503
tp1227
a(I8
I8
tp1228
a(I0
I0
tp1229
a(I3
I3
tp1230
a(I1504
I1559
tp1231
a(I7
I7
tp1232
a(I2116
I2162
tp1233
a(I1824
I1860
tp1234
a(I20
I20
tp1235
a(I11
I11
tp1236
a(I22
I22
tp1237
a(I45
I45
tp1238
a(I2
I2
tp1239
a(I4
I4
tp1240
a(I7
I7
tp1241
a(I19
I19
tp1242
a(I4
I4
tp1243
a(I20
I20
tp1244
a(I11
I11
tp1245
a(I1
I1
tp1246
a(I55
I55
tp1247
a(I66
I74
tp1248
a(I0
I0
tp1249
a(I1
I1
tp1250
a(I589
I613
tp1251
a(I2562
I2609
tp1252
a(I13
I13
tp1253
a(I3
I5
tp1254
a(I1415
I1478
tp1255
a(I387
I409
tp1256
a(I419
I422
tp1257
a(I447
I491
tp1258
a(I1016
I1049
tp1259
a(I45
I46
tp1260
a(I654
I663
tp1261
a(I1689
I1721
tp1262
a(I0
I0
tp1263
a(I232
I247
tp1264
a(I0
I0
tp1265
a(I1188
I1221
tp1266
a(I63
I63
tp1267
a(I0
I0
tp1268
a(I216
I262
tp1269
a(I198
I198
tp1270
a(I0
I0
tp1271
a(I1
I1
tp1272
a(I29
I29
tp1273
a(I1886
I1919
tp1274
a(I2
I2
tp1275
a(I1
I1
tp1276
a(I2528
I2558
tp1277
a(I3257
I3375
tp1278
a(I3049
I3138
tp1279
a(I1853
I1895
tp1280
a(I2166
I2221
tp1281
a(I1542
I1632
tp1282
a(I307
I338
tp1283
a(I122
I138
tp1284
a(I125
I128
tp1285
a(I1681
I1757
tp1286
a(I2484
I2576
tp1287
a(I1279
I1297
tp1288
a(I0
I0
tp1289
a(I885
I927
tp1290
a(I4
I5
tp1291
a(I152
I171
tp1292
a(I68
I68
tp1293
a(I4
I4
tp1294
a(I589
I590
tp1295
a(I30
I47
tp1296
asVbojangles
p1297
(lp1298
(I1001
I1039
tp1299
a(I51
I53
tp1300
a(I103
I124
tp1301
a(I1302
I1319
tp1302
a(I0
I0
tp1303
a(I10
I11
tp1304
a(I8
I12
tp1305
a(I10
I10
tp1306
a(I0
I0
tp1307
a(I4
I4
tp1308
a(I1
I1
tp1309
a(I483
I509
tp1310
a(I848
I870
tp1311
a(I1409
I1449
tp1312
a(I485
I503
tp1313
a(I945
I948
tp1314
a(I1
I1
tp1315
a(I208
I247
tp1316
a(I0
I1
tp1317
a(I12
I12
tp1318
a(I56
I73
tp1319
a(I2
I2
tp1320
a(I1228
I1278
tp1321
a(I0
I0
tp1322
a(I782
I810
tp1323
a(I2171
I2219
tp1324
a(I605
I681
tp1325
a(I96
I119
tp1326
a(I1193
I1257
tp1327
a(I1188
I1236
tp1328
a(I295
I353
tp1329
a(I1211
I1267
tp1330
a(I942
I965
tp1331
a(I817
I832
tp1332
a(I1592
I1614
tp1333
a(I35
I47
tp1334
a(I98
I101
tp1335
a(I902
I920
tp1336
a(I384
I434
tp1337
a(I303
I303
tp1338
a(I0
I0
tp1339
a(I9
I9
tp1340
a(I257
I292
tp1341
a(I346
I346
tp1342
a(I15
I15
tp1343
a(I3
I3
tp1344
a(I18
I18
tp1345
a(I7
I7
tp1346
a(I432
I451
tp1347
a(I28
I37
tp1348
a(I104
I117
tp1349
a(I458
I501
tp1350
a(I2
I2
tp1351
a(I339
I341
tp1352
a(I750
I777
tp1353
a(I1889
I1937
tp1354
a(I769
I809
tp1355
a(I926
I938
tp1356
a(I23
I35
tp1357
a(I226
I242
tp1358
a(I6
I9
tp1359
a(I1523
I1574
tp1360
a(I2342
I2421
tp1361
a(I1708
I1787
tp1362
a(I1222
I1265
tp1363
a(I1239
I1249
tp1364
a(I7362
I7544
tp1365
a(I3123
I3261
tp1366
a(I667
I690
tp1367
a(I2745
I2864
tp1368
a(I1162
I1200
tp1369
a(I447
I499
tp1370
a(I5706
I5872
tp1371
a(I1816
I1891
tp1372
a(I1304
I1334
tp1373
a(I2820
I2951
tp1374
a(I1884
I1967
tp1375
a(I1477
I1584
tp1376
a(I2085
I2110
tp1377
a(I872
I911
tp1378
a(I1312
I1342
tp1379
a(I1732
I1781
tp1380
a(I1276
I1322
tp1381
a(I690
I722
tp1382
a(I758
I787
tp1383
a(I5556
I5658
tp1384
a(I1439
I1479
tp1385
a(I1907
I1990
tp1386
a(I595
I653
tp1387
a(I1977
I2079
tp1388
a(I227
I238
tp1389
a(I722
I750
tp1390
a(I1250
I1303
tp1391
a(I792
I936
tp1392
a(I1702
I1762
tp1393
a(I350
I370
tp1394
a(I730
I771
tp1395
a(I620
I640
tp1396
a(I287
I311
tp1397
a(I1048
I1103
tp1398
a(I3
I3
tp1399
a(I427
I465
tp1400
a(I1144
I1187
tp1401
a(I704
I712
tp1402
a(I577
I598
tp1403
a(I1
I1
tp1404
a(I167
I177
tp1405
a(I5
I5
tp1406
a(I0
I0
tp1407
a(I773
I812
tp1408
a(I588
I612
tp1409
a(I675
I705
tp1410
a(I1
I1
tp1411
a(I380
I380
tp1412
a(I528
I559
tp1413
a(I1132
I1163
tp1414
a(I716
I727
tp1415
a(I349
I354
tp1416
a(I482
I527
tp1417
a(I1076
I1117
tp1418
a(I10
I10
tp1419
a(I638
I654
tp1420
a(I863
I887
tp1421
a(I120
I120
tp1422
a(I33
I33
tp1423
a(I12
I12
tp1424
a(I2
I2
tp1425
a(I337
I367
tp1426
a(I8
I8
tp1427
a(I0
I0
tp1428
a(I4
I5
tp1429
a(I0
I0
tp1430
a(I0
I0
tp1431
a(I255
I285
tp1432
a(I110
I146
tp1433
a(I2
I7
tp1434
a(I69
I88
tp1435
a(I809
I846
tp1436
a(I522
I545
tp1437
a(I339
I378
tp1438
a(I514
I514
tp1439
a(I227
I230
tp1440
a(I0
I0
tp1441
a(I907
I997
tp1442
a(I760
I771
tp1443
a(I791
I795
tp1444
a(I11
I11
tp1445
a(I43
I50
tp1446
a(I1451
I1513
tp1447
a(I1044
I1100
tp1448
a(I101
I118
tp1449
a(I929
I979
tp1450
a(I274
I275
tp1451
a(I2972
I3075
tp1452
a(I1743
I1808
tp1453
a(I2745
I2836
tp1454
a(I1269
I1321
tp1455
a(I1516
I1546
tp1456
a(I1229
I1257
tp1457
a(I3
I3
tp1458
a(I13
I13
tp1459
a(I228
I239
tp1460
a(I0
I0
tp1461
a(I0
I0
tp1462
a(I1
I1
tp1463
a(I19
I19
tp1464
asVpanera
p1465
(lp1466
(I968
I1045
tp1467
a(I2745
I2854
tp1468
a(I4186
I4298
tp1469
a(I5087
I5163
tp1470
a(I4116
I4201
tp1471
a(I4154
I4228
tp1472
a(I5887
I5919
tp1473
a(I6933
I6994
tp1474
a(I450
I544
tp1475
a(I2833
I2953
tp1476
a(I294
I352
tp1477
a(I80
I112
tp1478
a(I3395
I3451
tp1479
a(I1867
I1917
tp1480
a(I8095
I8263
tp1481
a(I5163
I5265
tp1482
a(I4679
I4787
tp1483
a(I3015
I3127
tp1484
a(I8245
I8534
tp1485
a(I3891
I3960
tp1486
a(I3837
I3915
tp1487
a(I5704
I5782
tp1488
a(I2752
I2811
tp1489
a(I4775
I4856
tp1490
a(I4027
I4074
tp1491
a(I3120
I3178
tp1492
a(I3795
I3845
tp1493
a(I1093
I1194
tp1494
a(I5080
I5251
tp1495
a(I314
I397
tp1496
a(I3507
I3560
tp1497
a(I3870
I3919
tp1498
a(I1118
I1170
tp1499
a(I3402
I3449
tp1500
a(I190
I219
tp1501
a(I33
I33
tp1502
a(I6735
I6928
tp1503
a(I7352
I7604
tp1504
a(I3830
I4051
tp1505
a(I3734
I3823
tp1506
a(I761
I874
tp1507
a(I6350
I6435
tp1508
a(I2697
I2830
tp1509
a(I7030
I7164
tp1510
a(I4983
I5100
tp1511
a(I3900
I4057
tp1512
a(I1137
I1232
tp1513
a(I6779
I6923
tp1514
a(I4346
I4460
tp1515
a(I4556
I4662
tp1516
a(I2983
I3085
tp1517
a(I4423
I4508
tp1518
a(I3405
I3510
tp1519
a(I826
I1032
tp1520
a(I4329
I4453
tp1521
a(I4806
I4908
tp1522
a(I4530
I4623
tp1523
a(I10
I10
tp1524
a(I825
I1021
tp1525
a(I192
I263
tp1526
a(I2532
I2633
tp1527
a(I3
I3
tp1528
a(I488
I563
tp1529
a(I63
I144
tp1530
a(I2
I2
tp1531
a(I556
I605
tp1532
a(I2622
I2707
tp1533
a(I5899
I5981
tp1534
a(I5293
I5457
tp1535
a(I23
I23
tp1536
a(I2137
I2170
tp1537
a(I937
I1007
tp1538
a(I1271
I1394
tp1539
a(I3675
I3787
tp1540
a(I1047
I1126
tp1541
a(I1416
I1499
tp1542
a(I1070
I1110
tp1543
a(I390
I399
tp1544
a(I524
I593
tp1545
a(I3053
I3099
tp1546
a(I4671
I4778
tp1547
a(I1756
I1800
tp1548
a(I1432
I1459
tp1549
a(I6239
I6409
tp1550
a(I3265
I3336
tp1551
a(I3883
I3931
tp1552
a(I3566
I3644
tp1553
a(I206
I244
tp1554
a(I2772
I2832
tp1555
a(I18
I22
tp1556
a(I6208
I6404
tp1557
a(I3681
I3750
tp1558
a(I5431
I5547
tp1559
a(I6406
I6514
tp1560
a(I4302
I4373
tp1561
a(I4463
I4509
tp1562
a(I6036
I6163
tp1563
a(I3028
I3102
tp1564
a(I53
I119
tp1565
a(I8408
I8598
tp1566
a(I7131
I7285
tp1567
a(I6810
I7026
tp1568
a(I296
I501
tp1569
a(I6198
I6348
tp1570
a(I3568
I3678
tp1571
a(I7365
I7534
tp1572
a(I1529
I1629
tp1573
a(I217
I244
tp1574
a(I6
I13
tp1575
a(I38
I41
tp1576
a(I20
I20
tp1577
a(I6633
I6798
tp1578
a(I1204
I1276
tp1579
a(I176
I243
tp1580
a(I2842
I2943
tp1581
a(I272
I279
tp1582
a(I1880
I1924
tp1583
a(I1410
I1446
tp1584
a(I2366
I2432
tp1585
a(I4860
I4920
tp1586
a(I2884
I2943
tp1587
a(I3066
I3133
tp1588
a(I2141
I2143
tp1589
a(I34
I90
tp1590
a(I12
I12
tp1591
a(I2722
I2795
tp1592
a(I2745
I2790
tp1593
a(I2832
I2937
tp1594
a(I2194
I2302
tp1595
a(I4356
I4389
tp1596
a(I4462
I4619
tp1597
a(I1125
I1156
tp1598
a(I672
I731
tp1599
a(I3536
I3565
tp1600
a(I179
I219
tp1601
a(I3191
I3257
tp1602
a(I1784
I1816
tp1603
a(I3108
I3227
tp1604
a(I2897
I3015
tp1605
a(I3753
I3819
tp1606
a(I2320
I2377
tp1607
a(I3152
I3198
tp1608
a(I1777
I1828
tp1609
a(I3515
I3604
tp1610
a(I4153
I4281
tp1611
a(I6212
I6386
tp1612
a(I3566
I3654
tp1613
a(I5501
I5598
tp1614
a(I7682
I7856
tp1615
a(I4322
I4397
tp1616
a(I5875
I6026
tp1617
a(I4862
I4936
tp1618
a(I3134
I3280
tp1619
a(I3138
I3235
tp1620
a(I3401
I3495
tp1621
a(I3795
I3887
tp1622
a(I3102
I3148
tp1623
a(I4894
I4996
tp1624
a(I5565
I5648
tp1625
a(I5004
I5076
tp1626
a(I3278
I3348
tp1627
a(I4853
I4973
tp1628
a(I1905
I2053
tp1629
a(I2608
I2689
tp1630
a(I5239
I5374
tp1631
a(I1186
I1217
tp1632
a(I56
I60
tp1633
a(I2746
I2816
tp1634
a(I11
I12
tp1635
a(I320
I324
tp1636
a(I3869
I3963
tp1637
a(I4959
I5033
tp1638
a(I3929
I4017
tp1639
a(I4652
I4882
tp1640
a(I4492
I4557
tp1641
a(I4520
I4604
tp1642
a(I5483
I5585
tp1643
a(I3493
I3535
tp1644
a(I2082
I2151
tp1645
a(I5
I5
tp1646
a(I1112
I1207
tp1647
a(I8628
I8925
tp1648
a(I7760
I7990
tp1649
a(I8476
I8779
tp1650
a(I5276
I5512
tp1651
a(I8161
I8486
tp1652
a(I6813
I7093
tp1653
a(I7138
I7340
tp1654
a(I12116
I12296
tp1655
a(I7128
I7276
tp1656
a(I5828
I5985
tp1657
a(I9448
I9720
tp1658
a(I7134
I7264
tp1659
a(I3616
I3731
tp1660
a(I7399
I7654
tp1661
a(I383
I443
tp1662
a(I7072
I7267
tp1663
a(I5663
I5785
tp1664
a(I7764
I7985
tp1665
a(I5103
I5211
tp1666
a(I4629
I4798
tp1667
a(I481
I567
tp1668
a(I4061
I4257
tp1669
a(I3208
I3313
tp1670
a(I9598
I9760
tp1671
a(I3223
I3377
tp1672
a(I6196
I6428
tp1673
a(I6513
I6698
tp1674
a(I5513
I5696
tp1675
a(I5687
I5792
tp1676
a(I5780
I5904
tp1677
a(I5433
I5637
tp1678
a(I495
I504
tp1679
a(I3217
I3255
tp1680
a(I3610
I3657
tp1681
a(I5418
I5456
tp1682
a(I52
I107
tp1683
a(I2
I2
tp1684
a(I4845
I4926
tp1685
a(I4688
I4778
tp1686
a(I777
I904
tp1687
a(I2720
I2787
tp1688
a(I2894
I2989
tp1689
a(I2045
I2084
tp1690
a(I1334
I1372
tp1691
a(I2399
I2483
tp1692
a(I5311
I5409
tp1693
a(I2234
I2284
tp1694
a(I6277
I6376
tp1695
a(I4194
I4280
tp1696
a(I3991
I4085
tp1697
a(I1882
I1915
tp1698
a(I3622
I3674
tp1699
a(I2325
I2330
tp1700
a(I1015
I1131
tp1701
a(I634
I687
tp1702
a(I1833
I1930
tp1703
a(I1182
I1218
tp1704
a(I0
I0
tp1705
a(I2184
I2278
tp1706
a(I735
I764
tp1707
a(I4094
I4246
tp1708
a(I2579
I2644
tp1709
a(I983
I1017
tp1710
a(I7
I7
tp1711
a(I6012
I6193
tp1712
a(I3803
I3885
tp1713
a(I2758
I2873
tp1714
a(I4879
I4990
tp1715
a(I7917
I8064
tp1716
a(I5889
I6080
tp1717
a(I3772
I3824
tp1718
a(I6347
I6510
tp1719
a(I13
I13
tp1720
a(I1363
I1400
tp1721
a(I5
I6
tp1722
a(I5680
I5926
tp1723
a(I4648
I4826
tp1724
a(I5059
I5198
tp1725
a(I4807
I4863
tp1726
a(I7348
I7428
tp1727
a(I685
I766
tp1728
a(I4653
I4789
tp1729
a(I4268
I4380
tp1730
a(I6301
I6434
tp1731
a(I2031
I2118
tp1732
a(I4517
I4588
tp1733
a(I3614
I3684
tp1734
a(I6365
I6478
tp1735
a(I5504
I5642
tp1736
a(I5508
I5561
tp1737
a(I172
I218
tp1738
a(I891
I982
tp1739
a(I433
I511
tp1740
a(I5899
I6077
tp1741
a(I2093
I2150
tp1742
a(I2507
I2607
tp1743
a(I33
I33
tp1744
a(I2039
I2137
tp1745
a(I2606
I2704
tp1746
a(I6589
I6672
tp1747
a(I7
I7
tp1748
a(I377
I401
tp1749
a(I255
I305
tp1750
a(I10092
I10254
tp1751
a(I5865
I6069
tp1752
a(I4056
I4143
tp1753
a(I6072
I6280
tp1754
a(I3590
I3684
tp1755
a(I740
I820
tp1756
a(I4713
I4829
tp1757
a(I758
I758
tp1758
a(I9069
I9220
tp1759
a(I4456
I4530
tp1760
a(I8052
I8113
tp1761
a(I731
I844
tp1762
a(I8733
I8859
tp1763
a(I5056
I5221
tp1764
a(I3270
I3336
tp1765
a(I4828
I4938
tp1766
a(I4450
I4487
tp1767
a(I5573
I5658
tp1768
a(I6578
I6696
tp1769
a(I2898
I2982
tp1770
a(I5822
I6013
tp1771
a(I41
I41
tp1772
a(I719
I736
tp1773
a(I1477
I1489
tp1774
a(I0
I2
tp1775
a(I7991
I8177
tp1776
a(I6259
I6402
tp1777
a(I3803
I3941
tp1778
a(I4885
I4951
tp1779
a(I3662
I3767
tp1780
a(I5051
I5088
tp1781
a(I2579
I2618
tp1782
a(I6993
I7107
tp1783
a(I1840
I1883
tp1784
a(I1038
I1078
tp1785
a(I441
I522
tp1786
a(I4229
I4307
tp1787
a(I591
I652
tp1788
a(I4442
I4549
tp1789
a(I1661
I1710
tp1790
a(I486
I578
tp1791
a(I12
I12
tp1792
a(I4911
I4999
tp1793
a(I4
I4
tp1794
a(I6186
I6340
tp1795
a(I5895
I6150
tp1796
a(I3669
I3751
tp1797
a(I5208
I5339
tp1798
a(I4858
I4951
tp1799
a(I4858
I4961
tp1800
a(I742
I816
tp1801
a(I2792
I2895
tp1802
a(I1177
I1251
tp1803
a(I686
I810
tp1804
a(I2408
I2452
tp1805
a(I3415
I3478
tp1806
a(I4
I4
tp1807
a(I1402
I1454
tp1808
a(I570
I622
tp1809
a(I395
I464
tp1810
a(I35
I85
tp1811
a(I4882
I4999
tp1812
a(I3180
I3239
tp1813
a(I6069
I6284
tp1814
a(I6194
I6344
tp1815
a(I5756
I5932
tp1816
a(I3733
I3791
tp1817
a(I4521
I4650
tp1818
a(I6859
I7075
tp1819
a(I3783
I3862
tp1820
a(I4500
I4648
tp1821
a(I7282
I7443
tp1822
a(I6088
I6121
tp1823
a(I5193
I5315
tp1824
a(I5083
I5219
tp1825
a(I4807
I4929
tp1826
a(I3944
I3985
tp1827
a(I4141
I4218
tp1828
a(I3544
I3684
tp1829
a(I4413
I4502
tp1830
a(I3534
I3626
tp1831
a(I3803
I3859
tp1832
a(I56929
I57859
tp1833
a(I17
I56
tp1834
a(I79
I101
tp1835
a(I2
I2
tp1836
a(I11
I11
tp1837
a(I7
I7
tp1838
a(I3994
I4084
tp1839
a(I7
I14
tp1840
a(I2952
I3025
tp1841
a(I3106
I3187
tp1842
a(I3061
I3113
tp1843
a(I1840
I1873
tp1844
a(I577
I668
tp1845
a(I2815
I2872
tp1846
asVwendys
p1847
(lp1848
(I687
I711
tp1849
a(I1457
I1486
tp1850
a(I611
I638
tp1851
a(I693
I705
tp1852
a(I1386
I1445
tp1853
a(I1937
I2045
tp1854
a(I837
I869
tp1855
a(I689
I741
tp1856
a(I690
I703
tp1857
a(I8
I8
tp1858
a(I1017
I1028
tp1859
a(I388
I403
tp1860
a(I632
I662
tp1861
a(I341
I360
tp1862
a(I216
I225
tp1863
a(I362
I362
tp1864
a(I322
I330
tp1865
a(I640
I680
tp1866
a(I1456
I1519
tp1867
a(I752
I778
tp1868
a(I314
I343
tp1869
a(I805
I835
tp1870
a(I4
I5
tp1871
a(I376
I376
tp1872
a(I1000
I1049
tp1873
a(I422
I425
tp1874
a(I1184
I1260
tp1875
a(I1116
I1165
tp1876
a(I146
I147
tp1877
a(I25
I25
tp1878
a(I1134
I1196
tp1879
a(I1342
I1367
tp1880
a(I1926
I1997
tp1881
a(I469
I489
tp1882
a(I777
I790
tp1883
a(I0
I0
tp1884
a(I812
I852
tp1885
a(I903
I940
tp1886
a(I2
I2
tp1887
a(I1256
I1308
tp1888
a(I494
I507
tp1889
a(I914
I948
tp1890
a(I904
I968
tp1891
a(I1030
I1080
tp1892
a(I1328
I1384
tp1893
a(I326
I390
tp1894
a(I803
I865
tp1895
a(I7
I7
tp1896
a(I2708
I2813
tp1897
a(I568
I584
tp1898
a(I197
I197
tp1899
a(I1142
I1212
tp1900
a(I2396
I2465
tp1901
a(I285
I297
tp1902
a(I17
I17
tp1903
a(I1143
I1173
tp1904
a(I6
I6
tp1905
a(I831
I837
tp1906
a(I5
I5
tp1907
a(I1372
I1419
tp1908
a(I336
I361
tp1909
a(I39
I39
tp1910
a(I284
I286
tp1911
a(I459
I527
tp1912
a(I272
I305
tp1913
a(I270
I291
tp1914
a(I6
I6
tp1915
a(I154
I164
tp1916
a(I720
I741
tp1917
a(I366
I391
tp1918
a(I298
I332
tp1919
a(I227
I237
tp1920
a(I19
I19
tp1921
a(I25
I25
tp1922
a(I283
I292
tp1923
a(I279
I279
tp1924
a(I415
I433
tp1925
a(I374
I379
tp1926
a(I254
I256
tp1927
a(I950
I982
tp1928
a(I721
I739
tp1929
a(I460
I478
tp1930
a(I280
I280
tp1931
a(I1239
I1285
tp1932
a(I198
I202
tp1933
a(I557
I572
tp1934
a(I2182
I2349
tp1935
a(I2175
I2299
tp1936
a(I874
I895
tp1937
a(I1456
I1523
tp1938
a(I1089
I1163
tp1939
a(I1564
I1607
tp1940
a(I933
I958
tp1941
a(I1740
I1838
tp1942
a(I29
I29
tp1943
a(I986
I1032
tp1944
a(I1838
I1931
tp1945
a(I1740
I1816
tp1946
a(I14
I14
tp1947
a(I7
I7
tp1948
a(I13
I13
tp1949
a(I874
I874
tp1950
a(I4
I5
tp1951
a(I909
I936
tp1952
a(I6
I6
tp1953
a(I712
I733
tp1954
a(I1001
I1033
tp1955
a(I1
I1
tp1956
a(I2212
I2316
tp1957
a(I995
I1013
tp1958
a(I1637
I1766
tp1959
a(I1023
I1087
tp1960
a(I335
I342
tp1961
a(I3
I3
tp1962
a(I27
I27
tp1963
a(I6
I6
tp1964
a(I1588
I1636
tp1965
a(I458
I490
tp1966
a(I1248
I1286
tp1967
a(I1864
I1938
tp1968
a(I1423
I1499
tp1969
a(I2495
I2582
tp1970
a(I1227
I1264
tp1971
a(I1614
I1658
tp1972
a(I1020
I1049
tp1973
a(I1150
I1183
tp1974
a(I431
I441
tp1975
a(I1181
I1239
tp1976
a(I1212
I1283
tp1977
a(I1868
I1916
tp1978
a(I1148
I1148
tp1979
a(I1656
I1709
tp1980
a(I1007
I1064
tp1981
a(I910
I935
tp1982
a(I1203
I1229
tp1983
a(I899
I948
tp1984
a(I765
I800
tp1985
a(I1486
I1534
tp1986
a(I757
I766
tp1987
a(I1188
I1222
tp1988
a(I748
I773
tp1989
a(I1261
I1288
tp1990
a(I1303
I1336
tp1991
a(I1019
I1102
tp1992
a(I3151
I3229
tp1993
a(I1573
I1611
tp1994
a(I287
I324
tp1995
a(I897
I953
tp1996
a(I0
I0
tp1997
a(I3
I7
tp1998
a(I637
I661
tp1999
a(I11
I22
tp2000
a(I38
I39
tp2001
a(I357
I370
tp2002
a(I147
I148
tp2003
a(I63
I63
tp2004
a(I732
I767
tp2005
a(I476
I500
tp2006
a(I469
I494
tp2007
a(I427
I448
tp2008
a(I1598
I1661
tp2009
a(I197
I197
tp2010
a(I460
I479
tp2011
a(I280
I292
tp2012
a(I431
I433
tp2013
a(I375
I415
tp2014
a(I1
I1
tp2015
a(I1914
I1946
tp2016
a(I498
I538
tp2017
a(I791
I802
tp2018
a(I640
I661
tp2019
a(I833
I876
tp2020
a(I356
I373
tp2021
a(I5
I5
tp2022
a(I674
I736
tp2023
a(I266
I286
tp2024
a(I1002
I1029
tp2025
a(I142
I149
tp2026
a(I0
I0
tp2027
a(I381
I428
tp2028
a(I1424
I1503
tp2029
a(I977
I1015
tp2030
a(I378
I407
tp2031
a(I174
I178
tp2032
a(I1
I1
tp2033
a(I0
I0
tp2034
a(I455
I491
tp2035
a(I275
I294
tp2036
a(I507
I526
tp2037
a(I49
I49
tp2038
a(I253
I260
tp2039
a(I5
I5
tp2040
a(I726
I747
tp2041
a(I444
I477
tp2042
a(I31
I54
tp2043
a(I1168
I1199
tp2044
a(I3
I3
tp2045
a(I276
I278
tp2046
a(I390
I411
tp2047
a(I333
I394
tp2048
a(I962
I1003
tp2049
a(I828
I899
tp2050
a(I487
I523
tp2051
a(I2
I2
tp2052
a(I549
I576
tp2053
a(I299
I325
tp2054
a(I89
I89
tp2055
a(I320
I332
tp2056
a(I224
I243
tp2057
a(I651
I682
tp2058
a(I530
I574
tp2059
a(I674
I724
tp2060
a(I127
I132
tp2061
a(I233
I287
tp2062
a(I443
I448
tp2063
a(I3
I3
tp2064
a(I106
I106
tp2065
a(I355
I368
tp2066
a(I328
I351
tp2067
a(I328
I333
tp2068
a(I985
I1043
tp2069
a(I1044
I1075
tp2070
a(I0
I0
tp2071
a(I1352
I1418
tp2072
a(I209
I209
tp2073
a(I10
I10
tp2074
a(I5
I6
tp2075
a(I980
I1014
tp2076
a(I1219
I1261
tp2077
a(I475
I488
tp2078
a(I401
I403
tp2079
a(I590
I594
tp2080
a(I6
I6
tp2081
a(I14
I14
tp2082
a(I11
I11
tp2083
a(I388
I423
tp2084
a(I943
I964
tp2085
a(I848
I895
tp2086
a(I1344
I1394
tp2087
a(I93
I121
tp2088
a(I579
I608
tp2089
a(I573
I592
tp2090
a(I796
I844
tp2091
a(I1469
I1512
tp2092
a(I457
I472
tp2093
a(I916
I936
tp2094
a(I356
I418
tp2095
a(I470
I498
tp2096
a(I1577
I1598
tp2097
a(I518
I556
tp2098
a(I1272
I1321
tp2099
a(I489
I510
tp2100
a(I910
I958
tp2101
a(I346
I365
tp2102
a(I4
I6
tp2103
a(I980
I1049
tp2104
a(I414
I428
tp2105
a(I1182
I1243
tp2106
a(I2
I2
tp2107
a(I2
I2
tp2108
a(I1143
I1186
tp2109
a(I376
I396
tp2110
a(I251
I268
tp2111
a(I4
I4
tp2112
a(I228
I228
tp2113
a(I457
I514
tp2114
a(I774
I774
tp2115
a(I180
I180
tp2116
a(I716
I731
tp2117
a(I522
I563
tp2118
a(I1356
I1401
tp2119
a(I526
I556
tp2120
a(I332
I356
tp2121
a(I0
I0
tp2122
a(I558
I610
tp2123
a(I1048
I1108
tp2124
a(I4
I4
tp2125
a(I4979
I5073
tp2126
a(I819
I849
tp2127
a(I3947
I4086
tp2128
a(I708
I751
tp2129
a(I461
I494
tp2130
a(I3967
I4099
tp2131
a(I1799
I1886
tp2132
a(I1117
I1174
tp2133
a(I937
I954
tp2134
a(I376
I407
tp2135
a(I1405
I1436
tp2136
a(I856
I873
tp2137
a(I1319
I1356
tp2138
a(I862
I908
tp2139
a(I192
I256
tp2140
a(I606
I626
tp2141
a(I1246
I1302
tp2142
a(I779
I807
tp2143
a(I935
I999
tp2144
a(I1461
I1488
tp2145
a(I712
I756
tp2146
a(I1124
I1175
tp2147
a(I1395
I1426
tp2148
a(I1164
I1256
tp2149
a(I866
I1018
tp2150
a(I16
I16
tp2151
a(I836
I881
tp2152
a(I220
I220
tp2153
a(I1036
I1102
tp2154
a(I19
I19
tp2155
a(I1053
I1099
tp2156
a(I676
I712
tp2157
a(I428
I443
tp2158
a(I531
I545
tp2159
a(I528
I586
tp2160
a(I672
I710
tp2161
a(I497
I515
tp2162
a(I1194
I1247
tp2163
a(I146
I146
tp2164
a(I464
I504
tp2165
a(I10
I10
tp2166
a(I555
I574
tp2167
a(I219
I221
tp2168
a(I384
I401
tp2169
a(I49
I105
tp2170
a(I681
I690
tp2171
a(I1
I1
tp2172
a(I590
I611
tp2173
a(I8
I8
tp2174
a(I545
I574
tp2175
a(I105
I105
tp2176
a(I5
I5
tp2177
a(I414
I435
tp2178
a(I1
I1
tp2179
a(I133
I164
tp2180
a(I318
I324
tp2181
a(I417
I432
tp2182
a(I638
I662
tp2183
a(I474
I478
tp2184
a(I686
I691
tp2185
a(I318
I346
tp2186
a(I829
I859
tp2187
a(I586
I628
tp2188
a(I584
I626
tp2189
a(I15
I15
tp2190
a(I657
I675
tp2191
a(I740
I756
tp2192
a(I701
I822
tp2193
a(I439
I503
tp2194
a(I0
I0
tp2195
a(I330
I333
tp2196
a(I160
I187
tp2197
a(I202
I209
tp2198
a(I374
I377
tp2199
a(I179
I187
tp2200
a(I389
I398
tp2201
a(I1758
I1806
tp2202
a(I630
I658
tp2203
a(I1100
I1128
tp2204
a(I36
I36
tp2205
a(I740
I765
tp2206
a(I628
I634
tp2207
a(I819
I838
tp2208
a(I1047
I1068
tp2209
a(I8
I8
tp2210
a(I776
I788
tp2211
a(I1166
I1180
tp2212
a(I25
I27
tp2213
a(I333
I346
tp2214
a(I725
I763
tp2215
a(I545
I571
tp2216
a(I2
I2
tp2217
a(I346
I353
tp2218
a(I617
I647
tp2219
a(I292
I303
tp2220
a(I838
I905
tp2221
a(I874
I914
tp2222
a(I146
I147
tp2223
a(I1320
I1393
tp2224
a(I270
I293
tp2225
a(I73
I100
tp2226
a(I317
I322
tp2227
a(I207
I213
tp2228
a(I802
I848
tp2229
a(I1
I1
tp2230
a(I2
I2
tp2231
a(I0
I0
tp2232
a(I652
I703
tp2233
a(I158
I177
tp2234
a(I172
I172
tp2235
a(I150
I158
tp2236
a(I604
I608
tp2237
a(I5
I5
tp2238
a(I178
I182
tp2239
a(I308
I334
tp2240
a(I348
I353
tp2241
a(I25
I25
tp2242
a(I299
I312
tp2243
a(I25
I31
tp2244
a(I558
I594
tp2245
a(I853
I881
tp2246
a(I417
I453
tp2247
a(I694
I704
tp2248
a(I200
I207
tp2249
a(I1170
I1209
tp2250
a(I258
I280
tp2251
a(I221
I230
tp2252
a(I293
I320
tp2253
a(I188
I195
tp2254
a(I1145
I1174
tp2255
a(I81
I88
tp2256
a(I105
I107
tp2257
a(I100
I100
tp2258
a(I4
I4
tp2259
a(I469
I515
tp2260
a(I280
I296
tp2261
a(I132
I177
tp2262
a(I942
I989
tp2263
a(I6
I6
tp2264
a(I659
I664
tp2265
a(I409
I435
tp2266
a(I621
I639
tp2267
a(I1723
I1784
tp2268
a(I351
I393
tp2269
a(I1446
I1600
tp2270
a(I36
I77
tp2271
a(I268
I298
tp2272
a(I436
I477
tp2273
a(I866
I909
tp2274
a(I1067
I1124
tp2275
a(I545
I565
tp2276
a(I798
I837
tp2277
a(I910
I1003
tp2278
a(I1285
I1329
tp2279
a(I101
I106
tp2280
a(I890
I925
tp2281
a(I954
I1014
tp2282
a(I1
I1
tp2283
a(I6
I6
tp2284
a(I1
I1
tp2285
a(I792
I814
tp2286
a(I503
I527
tp2287
a(I3
I3
tp2288
a(I641
I679
tp2289
a(I306
I328
tp2290
a(I320
I342
tp2291
a(I212
I245
tp2292
a(I627
I668
tp2293
a(I146
I170
tp2294
a(I321
I377
tp2295
a(I775
I786
tp2296
a(I879
I909
tp2297
a(I585
I640
tp2298
a(I5
I15
tp2299
a(I279
I298
tp2300
a(I486
I524
tp2301
a(I269
I279
tp2302
a(I180
I195
tp2303
a(I299
I308
tp2304
a(I492
I518
tp2305
a(I270
I279
tp2306
a(I192
I208
tp2307
a(I312
I313
tp2308
a(I375
I379
tp2309
a(I151
I154
tp2310
a(I240
I247
tp2311
a(I2
I6
tp2312
a(I2
I2
tp2313
a(I326
I342
tp2314
a(I271
I288
tp2315
a(I315
I332
tp2316
a(I74
I74
tp2317
a(I868
I922
tp2318
a(I1099
I1098
tp2319
a(I290
I293
tp2320
a(I1164
I1199
tp2321
a(I286
I298
tp2322
a(I1919
I1988
tp2323
a(I1318
I1347
tp2324
a(I1002
I1018
tp2325
a(I214
I214
tp2326
a(I1040
I1120
tp2327
a(I1841
I1870
tp2328
a(I714
I741
tp2329
a(I1580
I1655
tp2330
a(I949
I1008
tp2331
a(I1153
I1184
tp2332
a(I1008
I1039
tp2333
a(I990
I1031
tp2334
a(I746
I816
tp2335
a(I1828
I1893
tp2336
a(I1226
I1261
tp2337
a(I1230
I1275
tp2338
a(I766
I793
tp2339
a(I1007
I1033
tp2340
a(I9
I41
tp2341
a(I477
I501
tp2342
a(I156
I155
tp2343
a(I4043
I4197
tp2344
a(I888
I944
tp2345
a(I1187
I1275
tp2346
a(I836
I877
tp2347
a(I2196
I2265
tp2348
a(I1318
I1365
tp2349
a(I703
I735
tp2350
a(I906
I937
tp2351
a(I1634
I1697
tp2352
a(I511
I514
tp2353
a(I575
I592
tp2354
a(I529
I544
tp2355
a(I435
I462
tp2356
a(I660
I684
tp2357
a(I1328
I1335
tp2358
a(I828
I854
tp2359
a(I3
I3
tp2360
a(I862
I910
tp2361
a(I925
I962
tp2362
a(I0
I0
tp2363
a(I945
I1004
tp2364
a(I614
I639
tp2365
a(I356
I384
tp2366
a(I1341
I1390
tp2367
a(I351
I351
tp2368
a(I287
I313
tp2369
a(I273
I281
tp2370
a(I1821
I1882
tp2371
a(I1229
I1246
tp2372
a(I220
I224
tp2373
a(I311
I312
tp2374
a(I936
I961
tp2375
a(I292
I317
tp2376
a(I568
I613
tp2377
a(I898
I924
tp2378
a(I7
I7
tp2379
a(I1043
I1067
tp2380
a(I6
I6
tp2381
a(I702
I748
tp2382
a(I1050
I1080
tp2383
a(I872
I914
tp2384
a(I2556
I2598
tp2385
a(I1020
I1075
tp2386
a(I861
I890
tp2387
a(I914
I943
tp2388
a(I1646
I1700
tp2389
a(I752
I789
tp2390
a(I530
I553
tp2391
a(I394
I419
tp2392
a(I401
I408
tp2393
a(I681
I707
tp2394
a(I335
I386
tp2395
a(I685
I704
tp2396
a(I8
I8
tp2397
a(I485
I508
tp2398
a(I1313
I1390
tp2399
a(I8
I8
tp2400
a(I462
I529
tp2401
a(I1110
I1136
tp2402
a(I507
I529
tp2403
a(I33
I33
tp2404
a(I464
I506
tp2405
a(I507
I539
tp2406
a(I472
I506
tp2407
a(I146
I152
tp2408
a(I125
I140
tp2409
a(I622
I671
tp2410
a(I166
I167
tp2411
a(I552
I583
tp2412
a(I88
I88
tp2413
a(I8
I8
tp2414
a(I302
I354
tp2415
a(I238
I253
tp2416
a(I1
I1
tp2417
a(I674
I695
tp2418
a(I13
I13
tp2419
a(I18
I18
tp2420
a(I674
I706
tp2421
a(I0
I0
tp2422
a(I0
I0
tp2423
a(I887
I931
tp2424
a(I1396
I1480
tp2425
a(I1871
I1960
tp2426
a(I670
I704
tp2427
a(I902
I872
tp2428
a(I1878
I1952
tp2429
a(I990
I1035
tp2430
a(I2195
I2307
tp2431
a(I302
I325
tp2432
a(I5775
I6081
tp2433
a(I543
I593
tp2434
a(I916
I996
tp2435
a(I1501
I1560
tp2436
a(I1799
I1887
tp2437
a(I835
I874
tp2438
a(I2633
I2760
tp2439
a(I1336
I1422
tp2440
a(I1041
I1069
tp2441
a(I905
I927
tp2442
a(I1103
I1140
tp2443
a(I1647
I1701
tp2444
a(I859
I908
tp2445
a(I1410
I1494
tp2446
a(I1264
I1315
tp2447
a(I739
I753
tp2448
a(I776
I806
tp2449
a(I2087
I2229
tp2450
a(I1736
I1790
tp2451
a(I1279
I1370
tp2452
a(I2093
I2205
tp2453
a(I1074
I1161
tp2454
a(I0
I0
tp2455
a(I869
I899
tp2456
a(I792
I808
tp2457
a(I1
I1
tp2458
a(I5
I5
tp2459
a(I483
I508
tp2460
a(I273
I295
tp2461
a(I395
I413
tp2462
a(I472
I477
tp2463
a(I457
I482
tp2464
a(I315
I319
tp2465
a(I661
I681
tp2466
a(I413
I416
tp2467
a(I579
I613
tp2468
a(I2259
I2347
tp2469
a(I1108
I1147
tp2470
a(I584
I605
tp2471
a(I553
I557
tp2472
a(I421
I421
tp2473
a(I751
I769
tp2474
a(I3
I3
tp2475
a(I29
I29
tp2476
a(I345
I369
tp2477
a(I344
I360
tp2478
a(I1151
I1177
tp2479
a(I6
I6
tp2480
a(I2
I2
tp2481
a(I1243
I1292
tp2482
a(I634
I684
tp2483
a(I11
I11
tp2484
a(I733
I741
tp2485
a(I327
I347
tp2486
a(I1701
I1754
tp2487
a(I1039
I1104
tp2488
a(I800
I851
tp2489
a(I550
I558
tp2490
a(I440
I465
tp2491
a(I1149
I1178
tp2492
a(I1093
I1134
tp2493
a(I307
I312
tp2494
a(I1522
I1550
tp2495
a(I1084
I1111
tp2496
a(I325
I328
tp2497
a(I534
I537
tp2498
a(I1054
I1061
tp2499
a(I16
I16
tp2500
a(I1108
I1139
tp2501
a(I173
I175
tp2502
a(I372
I384
tp2503
a(I35
I35
tp2504
a(I838
I839
tp2505
a(I440
I467
tp2506
a(I1093
I1115
tp2507
a(I1585
I1638
tp2508
a(I488
I488
tp2509
a(I211
I212
tp2510
a(I31
I31
tp2511
a(I491
I510
tp2512
a(I1164
I1225
tp2513
a(I504
I535
tp2514
a(I74
I76
tp2515
a(I326
I353
tp2516
a(I552
I568
tp2517
a(I306
I318
tp2518
a(I249
I263
tp2519
a(I408
I415
tp2520
a(I630
I669
tp2521
a(I591
I611
tp2522
a(I561
I574
tp2523
a(I4081
I4209
tp2524
a(I689
I815
tp2525
a(I107
I126
tp2526
a(I558
I584
tp2527
a(I639
I656
tp2528
a(I642
I703
tp2529
a(I855
I899
tp2530
a(I558
I586
tp2531
a(I501
I540
tp2532
a(I976
I1023
tp2533
a(I1687
I1712
tp2534
a(I561
I567
tp2535
a(I170
I170
tp2536
a(I1096
I1152
tp2537
a(I625
I661
tp2538
a(I1066
I1113
tp2539
a(I213
I265
tp2540
a(I828
I864
tp2541
a(I7
I7
tp2542
a(I791
I804
tp2543
a(I1502
I1586
tp2544
a(I5
I5
tp2545
a(I464
I464
tp2546
a(I1027
I1062
tp2547
a(I181
I230
tp2548
a(I579
I589
tp2549
a(I730
I776
tp2550
a(I14
I14
tp2551
a(I2
I2
tp2552
a(I594
I595
tp2553
a(I812
I835
tp2554
a(I1076
I1127
tp2555
a(I202
I206
tp2556
a(I0
I0
tp2557
a(I638
I692
tp2558
a(I896
I919
tp2559
a(I612
I630
tp2560
a(I1281
I1339
tp2561
a(I435
I448
tp2562
a(I1007
I1043
tp2563
a(I49
I49
tp2564
a(I704
I736
tp2565
a(I769
I783
tp2566
a(I587
I631
tp2567
a(I1
I1
tp2568
a(I1
I1
tp2569
a(I1088
I1132
tp2570
a(I33
I33
tp2571
a(I552
I576
tp2572
a(I3
I3
tp2573
a(I487
I508
tp2574
a(I944
I1001
tp2575
a(I1278
I1329
tp2576
a(I2789
I2908
tp2577
a(I61
I61
tp2578
a(I16
I16
tp2579
a(I472
I563
tp2580
a(I1286
I1352
tp2581
a(I1091
I1154
tp2582
a(I2248
I2316
tp2583
a(I1206
I1252
tp2584
a(I2019
I2076
tp2585
a(I1101
I1191
tp2586
a(I1005
I1059
tp2587
a(I1321
I1371
tp2588
a(I187
I187
tp2589
a(I12
I12
tp2590
a(I933
I967
tp2591
a(I1882
I2001
tp2592
a(I4
I4
tp2593
a(I807
I813
tp2594
a(I1224
I1276
tp2595
a(I15
I15
tp2596
a(I5
I5
tp2597
a(I4
I4
tp2598
a(I1
I1
tp2599
a(I6
I6
tp2600
a(I6
I6
tp2601
a(I3
I3
tp2602
a(I53
I53
tp2603
a(I1324
I1396
tp2604
a(I1023
I1071
tp2605
a(I1212
I1216
tp2606
a(I2605
I2683
tp2607
a(I1261
I1297
tp2608
a(I2448
I2504
tp2609
a(I1140
I1157
tp2610
a(I1080
I1112
tp2611
a(I1283
I1365
tp2612
a(I1874
I1938
tp2613
a(I3191
I3336
tp2614
a(I1114
I1163
tp2615
a(I1519
I1563
tp2616
a(I1252
I1311
tp2617
a(I974
I1017
tp2618
a(I42
I42
tp2619
a(I1191
I1230
tp2620
a(I1843
I1970
tp2621
a(I1449
I1510
tp2622
a(I636
I676
tp2623
a(I247
I249
tp2624
a(I2172
I2242
tp2625
a(I2197
I2314
tp2626
a(I110
I203
tp2627
a(I27
I27
tp2628
a(I1111
I1138
tp2629
a(I135
I136
tp2630
a(I1404
I1502
tp2631
a(I1164
I1232
tp2632
a(I798
I812
tp2633
a(I520
I541
tp2634
a(I245
I281
tp2635
a(I347
I363
tp2636
a(I840
I864
tp2637
a(I558
I579
tp2638
a(I1013
I1054
tp2639
a(I1068
I1100
tp2640
a(I1599
I1648
tp2641
a(I1684
I1764
tp2642
a(I354
I354
tp2643
a(I1374
I1389
tp2644
a(I1250
I1264
tp2645
a(I695
I702
tp2646
a(I7
I7
tp2647
a(I16
I16
tp2648
a(I2
I2
tp2649
a(I582
I601
tp2650
a(I647
I666
tp2651
a(I1076
I1123
tp2652
a(I409
I417
tp2653
a(I746
I746
tp2654
a(I413
I431
tp2655
a(I1935
I1996
tp2656
a(I1659
I1699
tp2657
a(I1545
I1591
tp2658
a(I1741
I1767
tp2659
a(I2315
I2343
tp2660
a(I1264
I1297
tp2661
a(I1051
I1070
tp2662
a(I1984
I2019
tp2663
a(I1
I1
tp2664
a(I1146
I1172
tp2665
a(I817
I839
tp2666
a(I1121
I1150
tp2667
a(I1
I1
tp2668
a(I637
I644
tp2669
a(I1114
I1145
tp2670
a(I540
I550
tp2671
a(I362
I365
tp2672
a(I1234
I1313
tp2673
a(I391
I414
tp2674
a(I1
I1
tp2675
a(I1055
I1080
tp2676
a(I879
I896
tp2677
a(I554
I586
tp2678
a(I943
I971
tp2679
a(I1156
I1179
tp2680
a(I643
I672
tp2681
a(I463
I495
tp2682
a(I1068
I1098
tp2683
a(I1387
I1418
tp2684
a(I604
I616
tp2685
a(I635
I654
tp2686
a(I265
I265
tp2687
a(I1205
I1244
tp2688
a(I14
I14
tp2689
a(I1199
I1233
tp2690
a(I13
I13
tp2691
a(I11
I14
tp2692
a(I6
I6
tp2693
a(I1
I1
tp2694
a(I0
I0
tp2695
a(I503
I555
tp2696
a(I254
I255
tp2697
a(I307
I314
tp2698
a(I990
I1029
tp2699
a(I285
I289
tp2700
a(I290
I298
tp2701
a(I13
I13
tp2702
a(I446
I462
tp2703
a(I435
I471
tp2704
a(I445
I447
tp2705
a(I326
I358
tp2706
a(I12
I12
tp2707
a(I405
I412
tp2708
a(I4
I6
tp2709
a(I225
I228
tp2710
a(I22
I22
tp2711
a(I257
I261
tp2712
a(I2
I2
tp2713
a(I1080
I1197
tp2714
a(I591
I594
tp2715
a(I1933
I2027
tp2716
a(I1736
I1782
tp2717
a(I924
I953
tp2718
a(I910
I955
tp2719
a(I1125
I1189
tp2720
a(I1266
I1339
tp2721
a(I278
I291
tp2722
a(I140
I151
tp2723
a(I287
I291
tp2724
a(I1822
I1884
tp2725
a(I1104
I1137
tp2726
a(I759
I848
tp2727
a(I1073
I1122
tp2728
a(I1298
I1359
tp2729
a(I2044
I2124
tp2730
a(I1
I1
tp2731
a(I501
I539
tp2732
a(I296
I301
tp2733
a(I233
I234
tp2734
a(I1061
I1100
tp2735
a(I468
I505
tp2736
a(I4
I4
tp2737
a(I673
I696
tp2738
a(I1171
I1223
tp2739
a(I4
I4
tp2740
a(I661
I688
tp2741
a(I921
I949
tp2742
a(I915
I960
tp2743
a(I473
I495
tp2744
a(I513
I543
tp2745
a(I1730
I1786
tp2746
a(I1267
I1302
tp2747
a(I632
I713
tp2748
a(I737
I768
tp2749
a(I1395
I1456
tp2750
a(I11
I11
tp2751
a(I2673
I2731
tp2752
a(I871
I905
tp2753
a(I1
I1
tp2754
a(I2
I2
tp2755
a(I118
I125
tp2756
a(I745
I781
tp2757
a(I203
I216
tp2758
a(I593
I627
tp2759
a(I873
I907
tp2760
a(I9
I9
tp2761
a(I0
I0
tp2762
a(I1118
I1144
tp2763
a(I826
I859
tp2764
a(I761
I806
tp2765
a(I656
I684
tp2766
a(I123
I179
tp2767
a(I856
I894
tp2768
a(I2046
I2146
tp2769
a(I12
I12
tp2770
a(I1064
I1119
tp2771
a(I752
I789
tp2772
a(I8
I8
tp2773
a(I616
I632
tp2774
a(I514
I518
tp2775
a(I625
I657
tp2776
a(I356
I366
tp2777
a(I895
I942
tp2778
a(I0
I0
tp2779
a(I712
I743
tp2780
a(I282
I293
tp2781
a(I886
I958
tp2782
a(I967
I1014
tp2783
a(I600
I633
tp2784
a(I706
I751
tp2785
a(I910
I946
tp2786
a(I443
I454
tp2787
a(I1562
I1652
tp2788
a(I229
I241
tp2789
a(I0
I0
tp2790
a(I1033
I1048
tp2791
a(I19
I19
tp2792
a(I0
I0
tp2793
a(I1684
I1734
tp2794
a(I573
I608
tp2795
a(I485
I506
tp2796
a(I279
I307
tp2797
a(I368
I388
tp2798
a(I951
I1018
tp2799
a(I4
I20
tp2800
a(I234
I251
tp2801
a(I2
I2
tp2802
a(I1854
I1911
tp2803
a(I1027
I1058
tp2804
a(I2669
I2749
tp2805
a(I1293
I1326
tp2806
a(I980
I1007
tp2807
a(I1077
I1127
tp2808
a(I907
I933
tp2809
a(I1367
I1449
tp2810
a(I1350
I1404
tp2811
a(I1967
I2027
tp2812
a(I1471
I1504
tp2813
a(I1296
I1339
tp2814
a(I1037
I1072
tp2815
a(I850
I882
tp2816
a(I1760
I1831
tp2817
a(I1232
I1286
tp2818
a(I1703
I1761
tp2819
a(I1346
I1386
tp2820
a(I2037
I2137
tp2821
a(I388
I408
tp2822
a(I1308
I1376
tp2823
a(I2030
I2111
tp2824
a(I972
I1000
tp2825
a(I1384
I1440
tp2826
a(I1073
I1101
tp2827
a(I815
I835
tp2828
a(I10
I10
tp2829
a(I892
I905
tp2830
a(I1304
I1338
tp2831
a(I1675
I1729
tp2832
a(I10
I10
tp2833
a(I753
I788
tp2834
a(I808
I833
tp2835
a(I567
I592
tp2836
a(I6
I6
tp2837
a(I389
I407
tp2838
a(I115
I117
tp2839
a(I298
I317
tp2840
a(I381
I397
tp2841
a(I106
I108
tp2842
a(I288
I301
tp2843
a(I3
I3
tp2844
a(I986
I995
tp2845
a(I1051
I1084
tp2846
a(I611
I617
tp2847
a(I779
I786
tp2848
a(I928
I967
tp2849
a(I797
I822
tp2850
a(I1
I1
tp2851
a(I844
I875
tp2852
a(I323
I346
tp2853
a(I531
I552
tp2854
a(I1049
I1096
tp2855
a(I67
I108
tp2856
a(I158
I158
tp2857
a(I552
I569
tp2858
a(I5
I5
tp2859
a(I241
I250
tp2860
a(I1097
I1151
tp2861
a(I483
I504
tp2862
a(I780
I806
tp2863
a(I779
I818
tp2864
a(I856
I891
tp2865
a(I1
I1
tp2866
a(I1561
I1598
tp2867
a(I1106
I1135
tp2868
a(I0
I0
tp2869
a(I1347
I1412
tp2870
a(I1635
I1671
tp2871
a(I236
I237
tp2872
a(I841
I862
tp2873
a(I284
I301
tp2874
a(I2007
I2099
tp2875
a(I265
I268
tp2876
a(I213
I216
tp2877
a(I317
I338
tp2878
a(I716
I760
tp2879
a(I231
I247
tp2880
a(I2746
I2848
tp2881
a(I399
I430
tp2882
a(I328
I336
tp2883
a(I251
I277
tp2884
a(I918
I1017
tp2885
a(I3
I5
tp2886
a(I127
I140
tp2887
a(I485
I485
tp2888
a(I269
I273
tp2889
a(I574
I587
tp2890
a(I457
I460
tp2891
a(I133
I155
tp2892
a(I135
I137
tp2893
a(I253
I260
tp2894
a(I378
I378
tp2895
a(I115
I115
tp2896
a(I2176
I2282
tp2897
a(I10
I10
tp2898
a(I140
I143
tp2899
asVjamba
p2900
(lp2901
(I46
I50
tp2902
a(I47
I53
tp2903
a(I2502
I2523
tp2904
a(I3805
I3836
tp2905
a(I3278
I3393
tp2906
a(I1769
I1787
tp2907
a(I4325
I4453
tp2908
a(I2138
I2162
tp2909
a(I1292
I1287
tp2910
a(I2386
I2413
tp2911
a(I846
I887
tp2912
a(I3027
I3068
tp2913
a(I2402
I2443
tp2914
a(I1085
I1122
tp2915
a(I1354
I1397
tp2916
a(I1184
I1238
tp2917
a(I1465
I1510
tp2918
a(I548
I550
tp2919
a(I2270
I2335
tp2920
a(I2469
I2485
tp2921
a(I3422
I3470
tp2922
a(I2956
I3001
tp2923
a(I1480
I1512
tp2924
a(I2199
I2224
tp2925
a(I3413
I3467
tp2926
a(I1095
I1102
tp2927
a(I1660
I1700
tp2928
a(I195
I196
tp2929
a(I1711
I1724
tp2930
a(I1184
I1191
tp2931
a(I26
I31
tp2932
a(I45
I46
tp2933
a(I2797
I2859
tp2934
a(I2190
I2219
tp2935
a(I88
I152
tp2936
a(I2777
I2874
tp2937
a(I1913
I1940
tp2938
a(I1286
I1298
tp2939
a(I2978
I3042
tp2940
a(I1409
I1454
tp2941
a(I1012
I1027
tp2942
a(I950
I972
tp2943
a(I741
I747
tp2944
a(I5
I5
tp2945
a(I1591
I1612
tp2946
a(I19
I23
tp2947
a(I26
I26
tp2948
a(I12
I12
tp2949
a(I12
I12
tp2950
a(I131
I150
tp2951
a(I12
I12
tp2952
a(I2
I2
tp2953
a(I3
I3
tp2954
a(I0
I0
tp2955
a(I0
I0
tp2956
a(I0
I0
tp2957
a(I1513
I1557
tp2958
a(I494
I500
tp2959
a(I251
I251
tp2960
a(I1018
I1019
tp2961
a(I262
I270
tp2962
a(I1221
I1230
tp2963
a(I868
I888
tp2964
a(I805
I824
tp2965
a(I233
I233
tp2966
a(I1
I1
tp2967
a(I42
I42
tp2968
a(I1046
I1051
tp2969
a(I2720
I2754
tp2970
a(I158
I167
tp2971
a(I720
I732
tp2972
a(I191
I205
tp2973
a(I2
I2
tp2974
a(I12
I12
tp2975
a(I606
I620
tp2976
a(I1418
I1439
tp2977
a(I1561
I1609
tp2978
a(I742
I766
tp2979
a(I1902
I1982
tp2980
a(I207
I216
tp2981
a(I755
I782
tp2982
a(I1725
I1762
tp2983
a(I1409
I1419
tp2984
a(I461
I475
tp2985
a(I736
I744
tp2986
a(I44
I44
tp2987
a(I581
I602
tp2988
a(I1017
I1033
tp2989
a(I671
I673
tp2990
a(I8
I17
tp2991
a(I779
I806
tp2992
a(I690
I699
tp2993
a(I1
I1
tp2994
a(I0
I0
tp2995
a(I2420
I2468
tp2996
a(I2210
I2251
tp2997
a(I260
I281
tp2998
a(I1215
I1237
tp2999
a(I88
I92
tp3000
a(I1861
I1894
tp3001
a(I45
I52
tp3002
a(I3
I3
tp3003
a(I4
I4
tp3004
a(I5
I5
tp3005
a(I2
I2
tp3006
a(I0
I0
tp3007
a(I0
I0
tp3008
a(I7
I16
tp3009
a(I1
I1
tp3010
a(I26
I26
tp3011
a(I0
I0
tp3012
a(I9
I9
tp3013
a(I194
I194
tp3014
a(I1721
I1768
tp3015
a(I773
I816
tp3016
a(I9
I13
tp3017
a(I3
I4
tp3018
a(I303
I304
tp3019
a(I11
I31
tp3020
a(I361
I365
tp3021
a(I2
I2
tp3022
a(I33
I33
tp3023
a(I576
I584
tp3024
a(I401
I406
tp3025
a(I649
I658
tp3026
a(I566
I581
tp3027
a(I754
I794
tp3028
a(I672
I701
tp3029
a(I2681
I2741
tp3030
a(I1575
I1584
tp3031
a(I1879
I1902
tp3032
a(I2832
I2856
tp3033
a(I2445
I2463
tp3034
a(I341
I341
tp3035
a(I179
I203
tp3036
a(I3
I3
tp3037
a(I21866
I22389
tp3038
a(I0
I0
tp3039
a(I0
I0
tp3040
a(I686
I687
tp3041
a(I938
I963
tp3042
a(I9
I9
tp3043
asVstarbucks
p3044
(lp3045
(I21944
I22424
tp3046
a(I3974
I4214
tp3047
a(I33
I40
tp3048
a(I79
I79
tp3049
a(I21
I21
tp3050
a(I131
I131
tp3051
a(I1041
I1123
tp3052
a(I6
I6
tp3053
a(I2812
I2922
tp3054
a(I2916
I3087
tp3055
a(I2077
I2147
tp3056
a(I809
I845
tp3057
a(I1148
I1169
tp3058
a(I869
I883
tp3059
a(I738
I745
tp3060
a(I120
I185
tp3061
a(I213
I215
tp3062
a(I196
I200
tp3063
a(I664
I664
tp3064
a(I22
I22
tp3065
a(I8
I8
tp3066
a(I13
I13
tp3067
a(I5
I9
tp3068
a(I80
I85
tp3069
a(I13
I13
tp3070
a(I2296
I2617
tp3071
a(I12
I13
tp3072
a(I38
I38
tp3073
a(I10
I11
tp3074
a(I5
I5
tp3075
a(I44
I44
tp3076
a(I27023
I27552
tp3077
a(I3247
I3813
tp3078
a(I6356
I6691
tp3079
a(I8934
I9026
tp3080
a(I2187
I2237
tp3081
a(I13
I15
tp3082
a(I1375
I1466
tp3083
a(I3
I3
tp3084
a(I6464
I6587
tp3085
a(I207
I208
tp3086
a(I13
I15
tp3087
a(I27
I27
tp3088
a(I3
I3
tp3089
a(I3051
I3254
tp3090
a(I4913
I5039
tp3091
a(I5716
I5888
tp3092
a(I397
I404
tp3093
a(I2388
I2431
tp3094
a(I62
I65
tp3095
a(I1886
I2007
tp3096
a(I320
I326
tp3097
a(I4
I4
tp3098
a(I671
I681
tp3099
a(I340
I343
tp3100
a(I2798
I2965
tp3101
a(I3
I3
tp3102
a(I822
I837
tp3103
a(I623
I693
tp3104
a(I5
I5
tp3105
a(I155
I188
tp3106
a(I8285
I8506
tp3107
a(I3658
I4002
tp3108
a(I6434
I6659
tp3109
a(I4397
I4504
tp3110
a(I14138
I14520
tp3111
a(I861
I866
tp3112
a(I10047
I10236
tp3113
a(I9038
I9182
tp3114
a(I305
I389
tp3115
a(I2425
I2595
tp3116
a(I10948
I11119
tp3117
a(I2024
I2028
tp3118
a(I8895
I9101
tp3119
a(I498
I499
tp3120
a(I2316
I2320
tp3121
a(I478
I530
tp3122
a(I4919
I4944
tp3123
a(I678
I799
tp3124
a(I1322
I1432
tp3125
a(I11
I11
tp3126
a(I20
I21
tp3127
a(I2344
I2721
tp3128
a(I49
I50
tp3129
a(I9
I9
tp3130
a(I1133
I1140
tp3131
a(I8
I8
tp3132
a(I11
I11
tp3133
a(I4
I8
tp3134
a(I57
I57
tp3135
a(I805
I921
tp3136
a(I1037
I1116
tp3137
a(I584
I652
tp3138
a(I323
I324
tp3139
a(I0
I0
tp3140
a(I4047
I4194
tp3141
a(I5530
I5588
tp3142
a(I1153
I1385
tp3143
a(I396
I396
tp3144
a(I5
I5
tp3145
a(I3324
I3432
tp3146
a(I1
I2
tp3147
a(I10
I10
tp3148
a(I1656
I1712
tp3149
a(I0
I1796
tp3150
a(I22
I22
tp3151
a(I1790
I1846
tp3152
a(I5
I6
tp3153
a(I1534
I1537
tp3154
a(I3
I7
tp3155
a(I561
I604
tp3156
a(I575
I575
tp3157
a(I6753
I6948
tp3158
a(I423
I427
tp3159
a(I936
I1053
tp3160
a(I5228
I5335
tp3161
a(I3369
I3444
tp3162
a(I20786
I21722
tp3163
a(I26440
I27537
tp3164
a(I8056
I8317
tp3165
a(I6665
I6806
tp3166
a(I4213
I4348
tp3167
a(I11516
I11862
tp3168
a(I13288
I13717
tp3169
a(I12073
I12798
tp3170
a(I9116
I9306
tp3171
a(I9300
I9612
tp3172
a(I2079
I2748
tp3173
a(I8367
I8523
tp3174
a(I3067
I3452
tp3175
a(I5434
I5818
tp3176
a(I6114
I6419
tp3177
a(I7610
I7806
tp3178
a(I5160
I5250
tp3179
a(I7872
I8106
tp3180
a(I5088
I5192
tp3181
a(I7474
I7685
tp3182
a(I9716
I9889
tp3183
a(I3912
I4009
tp3184
a(I5357
I5598
tp3185
a(I4286
I4434
tp3186
a(I7499
I7734
tp3187
a(I3894
I4148
tp3188
a(I4945
I5169
tp3189
a(I5538
I5755
tp3190
a(I4723
I4946
tp3191
a(I5255
I5421
tp3192
a(I4943
I4975
tp3193
a(I4552
I4677
tp3194
a(I144
I146
tp3195
a(I11
I15
tp3196
a(I10
I11
tp3197
a(I44
I44
tp3198
a(I709
I762
tp3199
a(I0
I0
tp3200
a(I8267
I8535
tp3201
a(I1619
I1809
tp3202
a(I9481
I9756
tp3203
a(I20104
I20764
tp3204
a(I12994
I13363
tp3205
a(I8937
I9292
tp3206
a(I11600
I11959
tp3207
a(I6686
I6926
tp3208
a(I7892
I7998
tp3209
a(I3376
I3489
tp3210
a(I419
I422
tp3211
a(I8104
I8286
tp3212
a(I8955
I9240
tp3213
a(I7737
I8030
tp3214
a(I12340
I12758
tp3215
a(I18840
I19326
tp3216
a(I11185
I11385
tp3217
a(I12233
I12687
tp3218
a(I9322
I9722
tp3219
a(I11961
I12431
tp3220
a(I14280
I14657
tp3221
a(I6745
I6914
tp3222
a(I9684
I10055
tp3223
a(I11416
I11802
tp3224
a(I10659
I10899
tp3225
a(I1547
I1555
tp3226
a(I6343
I6540
tp3227
a(I8707
I8969
tp3228
a(I6866
I7054
tp3229
a(I4947
I5335
tp3230
a(I5314
I5475
tp3231
a(I3255
I3347
tp3232
a(I2892
I3127
tp3233
a(I10620
I10819
tp3234
a(I1853
I1857
tp3235
a(I90
I96
tp3236
a(I45
I45
tp3237
a(I380
I644
tp3238
a(I505
I506
tp3239
a(I111
I113
tp3240
a(I958
I958
tp3241
a(I9
I12
tp3242
a(I29
I29
tp3243
a(I81
I99
tp3244
a(I147
I148
tp3245
a(I327
I321
tp3246
a(I7492
I7600
tp3247
a(I7
I7
tp3248
a(I4954
I5009
tp3249
a(I206
I210
tp3250
a(I11
I12
tp3251
a(I82
I82
tp3252
a(I220
I220
tp3253
a(I70
I84
tp3254
a(I52
I53
tp3255
a(I1479
I1546
tp3256
a(I8
I8
tp3257
a(I3871
I3988
tp3258
a(I3636
I3755
tp3259
a(I2730
I2855
tp3260
a(I2588
I2677
tp3261
a(I2516
I2677
tp3262
a(I1504
I1526
tp3263
a(I4857
I4978
tp3264
a(I883
I1086
tp3265
a(I692
I696
tp3266
a(I1425
I1476
tp3267
a(I221
I222
tp3268
a(I22
I23
tp3269
a(I9
I11
tp3270
a(I7
I17
tp3271
a(I57
I57
tp3272
a(I83
I307
tp3273
a(I66
I66
tp3274
a(I257
I258
tp3275
a(I57
I57
tp3276
a(I27
I28
tp3277
a(I4176
I4462
tp3278
a(I13689
I14080
tp3279
a(I3747
I3936
tp3280
a(I4201
I4555
tp3281
a(I3387
I3455
tp3282
a(I2712
I2806
tp3283
a(I2460
I2559
tp3284
a(I3609
I3738
tp3285
a(I4112
I4214
tp3286
a(I3501
I3560
tp3287
a(I2648
I2724
tp3288
a(I3409
I3468
tp3289
a(I2011
I2066
tp3290
a(I2561
I2650
tp3291
a(I2675
I2731
tp3292
a(I578
I690
tp3293
a(I4547
I4623
tp3294
a(I2247
I2318
tp3295
a(I2100
I2129
tp3296
a(I9
I9
tp3297
a(I2314
I2323
tp3298
a(I2888
I2903
tp3299
a(I539
I642
tp3300
a(I40
I40
tp3301
a(I33
I90
tp3302
a(I879
I1038
tp3303
a(I380
I386
tp3304
a(I38
I38
tp3305
a(I329
I420
tp3306
a(I156
I225
tp3307
a(I9687
I10141
tp3308
a(I10366
I10681
tp3309
a(I4953
I5166
tp3310
a(I32
I32
tp3311
a(I1546
I1595
tp3312
a(I1141
I1155
tp3313
a(I4
I4
tp3314
a(I826
I834
tp3315
a(I671
I673
tp3316
a(I191
I194
tp3317
a(I263
I266
tp3318
a(I27
I98
tp3319
a(I454
I455
tp3320
a(I28
I28
tp3321
a(I5
I6
tp3322
a(I45
I54
tp3323
a(I7210
I7389
tp3324
a(I2689
I2750
tp3325
a(I3112
I3194
tp3326
a(I4957
I5166
tp3327
a(I6214
I6420
tp3328
a(I4248
I4337
tp3329
a(I3541
I3624
tp3330
a(I3784
I3878
tp3331
a(I2348
I2436
tp3332
a(I387
I481
tp3333
a(I2478
I2555
tp3334
a(I2711
I2813
tp3335
a(I3768
I3840
tp3336
a(I1733
I1772
tp3337
a(I2635
I2702
tp3338
a(I2380
I2465
tp3339
a(I1467
I1552
tp3340
a(I2383
I2402
tp3341
a(I3184
I3297
tp3342
a(I1564
I1591
tp3343
a(I1053
I1113
tp3344
a(I2463
I2597
tp3345
a(I30
I30
tp3346
a(I833
I833
tp3347
a(I1
I35
tp3348
a(I604
I694
tp3349
a(I1286
I1405
tp3350
a(I2211
I2276
tp3351
a(I404
I404
tp3352
a(I175
I245
tp3353
a(I3
I3
tp3354
a(I5553
I5747
tp3355
a(I83
I88
tp3356
a(I3830
I3955
tp3357
a(I6736
I6927
tp3358
a(I1574
I1659
tp3359
a(I6814
I6939
tp3360
a(I480
I509
tp3361
a(I1991
I2033
tp3362
a(I4049
I4141
tp3363
a(I128
I128
tp3364
a(I9
I13
tp3365
a(I15
I15
tp3366
a(I10
I10
tp3367
a(I5
I5
tp3368
a(I37
I37
tp3369
a(I34
I34
tp3370
a(I405
I407
tp3371
a(I189
I199
tp3372
a(I7
I7
tp3373
a(I251
I306
tp3374
a(I49
I49
tp3375
a(I7937
I8066
tp3376
a(I650
I651
tp3377
a(I10393
I10671
tp3378
a(I7185
I7370
tp3379
a(I7648
I7924
tp3380
a(I8515
I8872
tp3381
a(I3848
I3955
tp3382
a(I7676
I7853
tp3383
a(I5166
I5227
tp3384
a(I2030
I2097
tp3385
a(I1131
I1176
tp3386
a(I802
I861
tp3387
a(I792
I800
tp3388
a(I20
I20
tp3389
a(I413
I476
tp3390
a(I2948
I3108
tp3391
a(I708
I713
tp3392
a(I78
I78
tp3393
a(I2
I13
tp3394
a(I732
I775
tp3395
a(I2
I2
tp3396
a(I0
I0
tp3397
a(I1
I2
tp3398
a(I12
I12
tp3399
a(I4
I4
tp3400
a(I28
I32
tp3401
a(I240
I241
tp3402
a(I125
I127
tp3403
a(I107
I112
tp3404
a(I7465
I7654
tp3405
a(I99
I102
tp3406
a(I2124
I2135
tp3407
a(I113
I115
tp3408
a(I290
I291
tp3409
a(I3
I4
tp3410
a(I630
I639
tp3411
a(I364
I372
tp3412
a(I61
I61
tp3413
a(I533
I541
tp3414
a(I2
I2
tp3415
a(I21
I21
tp3416
a(I8
I15
tp3417
a(I8370
I8564
tp3418
a(I9679
I9883
tp3419
a(I9972
I10344
tp3420
a(I19710
I20175
tp3421
a(I13875
I14360
tp3422
a(I11307
I11545
tp3423
a(I8734
I8960
tp3424
a(I6569
I6768
tp3425
a(I11968
I12215
tp3426
a(I9139
I9428
tp3427
a(I5042
I5142
tp3428
a(I1831
I1946
tp3429
a(I14249
I15071
tp3430
a(I3910
I4044
tp3431
a(I9205
I9352
tp3432
a(I562
I563
tp3433
a(I10612
I10844
tp3434
a(I10278
I10352
tp3435
a(I4733
I4832
tp3436
a(I6824
I6981
tp3437
a(I1800
I1928
tp3438
a(I6564
I6661
tp3439
a(I2576
I2713
tp3440
a(I9814
I9973
tp3441
a(I2338
I2781
tp3442
a(I3130
I3239
tp3443
a(I1988
I2097
tp3444
a(I9254
I9375
tp3445
a(I7690
I7861
tp3446
a(I5203
I5380
tp3447
a(I972
I1146
tp3448
a(I10313
I10555
tp3449
a(I11054
I11250
tp3450
a(I3322
I3513
tp3451
a(I3001
I3070
tp3452
a(I897
I919
tp3453
a(I1737
I1759
tp3454
a(I2379
I2391
tp3455
a(I376
I382
tp3456
a(I117
I118
tp3457
a(I6089
I6205
tp3458
a(I4
I4
tp3459
a(I283
I284
tp3460
a(I18
I18
tp3461
a(I75
I76
tp3462
a(I12223
I12640
tp3463
a(I3230
I3463
tp3464
a(I5725
I5868
tp3465
a(I1325
I1378
tp3466
a(I1676
I1709
tp3467
a(I26
I26
tp3468
a(I18
I18
tp3469
a(I6
I6
tp3470
a(I3898
I4012
tp3471
a(I349
I349
tp3472
a(I793
I794
tp3473
a(I744
I837
tp3474
a(I6396
I6509
tp3475
a(I11
I12
tp3476
a(I12
I12
tp3477
a(I0
I0
tp3478
a(I255
I337
tp3479
a(I8
I8
tp3480
a(I15
I28
tp3481
a(I696
I700
tp3482
a(I4260
I4443
tp3483
a(I4270
I4466
tp3484
a(I2772
I2926
tp3485
a(I2805
I2878
tp3486
a(I29
I29
tp3487
a(I54
I54
tp3488
a(I24
I24
tp3489
a(I0
I0
tp3490
a(I47
I47
tp3491
a(I81
I82
tp3492
a(I1
I4
tp3493
a(I5511
I5690
tp3494
a(I50
I64
tp3495
a(I64
I64
tp3496
a(I0
I136
tp3497
a(I811
I846
tp3498
a(I10
I10
tp3499
a(I448
I458
tp3500
a(I585
I634
tp3501
a(I664
I666
tp3502
a(I13
I13
tp3503
a(I52
I52
tp3504
a(I36
I36
tp3505
a(I4
I5
tp3506
a(I6151
I6307
tp3507
a(I6723
I6873
tp3508
a(I6488
I6602
tp3509
a(I6175
I6355
tp3510
a(I951
I958
tp3511
a(I714
I716
tp3512
a(I2220
I2235
tp3513
a(I1724
I1725
tp3514
a(I804
I806
tp3515
a(I1263
I1260
tp3516
a(I477
I478
tp3517
a(I1067
I1089
tp3518
a(I621
I615
tp3519
a(I513
I513
tp3520
a(I47
I114
tp3521
a(I4
I4
tp3522
a(I1142
I1148
tp3523
a(I590
I590
tp3524
a(I261
I267
tp3525
a(I229
I231
tp3526
a(I171
I171
tp3527
a(I300
I300
tp3528
a(I68
I68
tp3529
a(I6
I8
tp3530
a(I4
I7
tp3531
a(I125
I126
tp3532
a(I438
I438
tp3533
a(I38
I38
tp3534
a(I13
I13
tp3535
a(I607
I608
tp3536
a(I2092
I2107
tp3537
a(I7693
I8062
tp3538
a(I6537
I6775
tp3539
a(I6649
I6757
tp3540
a(I3134
I3194
tp3541
a(I4
I4
tp3542
a(I253
I362
tp3543
a(I225
I386
tp3544
a(I119
I176
tp3545
a(I3
I3
tp3546
a(I0
I0
tp3547
a(I51
I51
tp3548
a(I8
I18
tp3549
a(I49
I49
tp3550
a(I800
I888
tp3551
a(I28
I28
tp3552
a(I16
I16
tp3553
a(I3073
I3175
tp3554
a(I1778
I1778
tp3555
a(I3344
I3440
tp3556
a(I79
I80
tp3557
a(I18
I18
tp3558
a(I3
I3
tp3559
a(I42
I42
tp3560
a(I7600
I7733
tp3561
a(I527
I531
tp3562
a(I93
I100
tp3563
a(I156
I156
tp3564
a(I34
I34
tp3565
a(I1
I1
tp3566
a(I653
I653
tp3567
a(I3420
I3458
tp3568
a(I5
I5
tp3569
a(I5115
I5291
tp3570
a(I5811
I5976
tp3571
a(I5177
I5331
tp3572
a(I1224
I1289
tp3573
a(I2487
I2620
tp3574
a(I3357
I3428
tp3575
a(I684
I690
tp3576
a(I671
I674
tp3577
a(I8
I8
tp3578
a(I736
I741
tp3579
a(I4038
I4062
tp3580
a(I405
I440
tp3581
a(I2215
I2218
tp3582
a(I2572
I2799
tp3583
a(I105
I111
tp3584
a(I466
I466
tp3585
a(I1
I1
tp3586
a(I8
I8
tp3587
a(I13
I13
tp3588
a(I314
I355
tp3589
a(I91
I91
tp3590
a(I863
I878
tp3591
a(I3977
I4108
tp3592
a(I4317
I4499
tp3593
a(I2239
I2337
tp3594
a(I2473
I2587
tp3595
a(I171
I174
tp3596
a(I200
I201
tp3597
a(I3649
I3817
tp3598
a(I5
I5
tp3599
a(I289
I290
tp3600
a(I14
I15
tp3601
a(I2720
I2794
tp3602
a(I4236
I4370
tp3603
a(I2667
I2759
tp3604
a(I2362
I2429
tp3605
a(I1494
I1552
tp3606
a(I2992
I3141
tp3607
a(I3220
I3267
tp3608
a(I3699
I3848
tp3609
a(I5085
I5185
tp3610
a(I2794
I2891
tp3611
a(I3062
I3200
tp3612
a(I1690
I1770
tp3613
a(I4246
I4403
tp3614
a(I3565
I3678
tp3615
a(I323
I421
tp3616
a(I3721
I3811
tp3617
a(I6624
I6769
tp3618
a(I4251
I4350
tp3619
a(I2196
I2277
tp3620
a(I1721
I1765
tp3621
a(I561
I605
tp3622
a(I1995
I2073
tp3623
a(I7330
I7515
tp3624
a(I2410
I2461
tp3625
a(I1877
I1945
tp3626
a(I2884
I2934
tp3627
a(I2807
I2896
tp3628
a(I4537
I4635
tp3629
a(I5150
I5221
tp3630
a(I2866
I2940
tp3631
a(I2189
I2262
tp3632
a(I2683
I2754
tp3633
a(I2124
I2176
tp3634
a(I307
I312
tp3635
a(I128
I134
tp3636
a(I441
I441
tp3637
a(I0
I0
tp3638
a(I3
I4
tp3639
a(I154
I161
tp3640
a(I1
I1
tp3641
a(I8
I8
tp3642
a(I28
I28
tp3643
a(I14
I14
tp3644
a(I3
I3
tp3645
a(I20
I21
tp3646
a(I9
I11
tp3647
a(I2612
I2658
tp3648
a(I561
I576
tp3649
a(I4172
I4353
tp3650
a(I3346
I3465
tp3651
a(I7545
I7712
tp3652
a(I5666
I5765
tp3653
a(I3885
I3963
tp3654
a(I4616
I4685
tp3655
a(I2863
I2943
tp3656
a(I1962
I2115
tp3657
a(I3635
I3692
tp3658
a(I3347
I3466
tp3659
a(I983
I1068
tp3660
a(I5156
I5209
tp3661
a(I3187
I3246
tp3662
a(I225
I230
tp3663
a(I135
I153
tp3664
a(I384
I391
tp3665
a(I203
I205
tp3666
a(I1320
I1402
tp3667
a(I3973
I4009
tp3668
a(I656
I838
tp3669
a(I2290
I2445
tp3670
a(I48
I48
tp3671
a(I87
I90
tp3672
a(I309
I377
tp3673
a(I1734
I1869
tp3674
a(I349
I351
tp3675
a(I260
I260
tp3676
a(I208
I209
tp3677
a(I1757
I1786
tp3678
a(I782
I961
tp3679
a(I2420
I2570
tp3680
a(I2168
I2125
tp3681
a(I81
I97
tp3682
a(I1523
I1531
tp3683
a(I1849
I1946
tp3684
a(I174
I174
tp3685
a(I4
I4
tp3686
a(I24074
I24809
tp3687
a(I6629
I6829
tp3688
a(I9310
I9572
tp3689
a(I7083
I7220
tp3690
a(I7968
I8216
tp3691
a(I24583
I25005
tp3692
a(I7934
I8349
tp3693
a(I9023
I9204
tp3694
a(I5241
I5559
tp3695
a(I14261
I14491
tp3696
a(I4276
I4471
tp3697
a(I7052
I7240
tp3698
a(I7474
I7689
tp3699
a(I8632
I8828
tp3700
a(I7230
I7479
tp3701
a(I6347
I6577
tp3702
a(I6130
I6241
tp3703
a(I8642
I8956
tp3704
a(I6857
I7034
tp3705
a(I9152
I9422
tp3706
a(I5526
I5714
tp3707
a(I4897
I4964
tp3708
a(I7309
I7436
tp3709
a(I9537
I9833
tp3710
a(I12344
I12651
tp3711
a(I2039
I2054
tp3712
a(I7184
I7334
tp3713
a(I1108
I1118
tp3714
a(I2136
I2181
tp3715
a(I1870
I1898
tp3716
a(I3586
I3654
tp3717
a(I7
I7
tp3718
a(I8394
I8818
tp3719
a(I8287
I8589
tp3720
a(I3375
I3453
tp3721
a(I4408
I4521
tp3722
a(I5462
I5536
tp3723
a(I62
I63
tp3724
a(I5738
I5885
tp3725
a(I0
I0
tp3726
a(I1
I1
tp3727
a(I9
I11
tp3728
a(I213
I221
tp3729
a(I21
I22
tp3730
a(I226
I228
tp3731
a(I661
I663
tp3732
a(I48
I49
tp3733
a(I18
I18
tp3734
a(I160
I162
tp3735
a(I0
I170
tp3736
a(I4
I5
tp3737
a(I219
I224
tp3738
a(I4226
I4315
tp3739
a(I6220
I6429
tp3740
a(I9246
I9509
tp3741
a(I11839
I12052
tp3742
a(I1944
I1970
tp3743
a(I1526
I1531
tp3744
a(I17
I17
tp3745
a(I5
I5
tp3746
a(I3
I3
tp3747
a(I11
I12
tp3748
a(I6
I6
tp3749
a(I2
I2
tp3750
a(I8
I8
tp3751
a(I26166
I26662
tp3752
a(I13689
I13990
tp3753
a(I10110
I10431
tp3754
a(I7695
I7914
tp3755
a(I2437
I2588
tp3756
a(I4077
I4335
tp3757
a(I5101
I5278
tp3758
a(I1197
I1215
tp3759
a(I7913
I8231
tp3760
a(I1738
I1805
tp3761
a(I12594
I12861
tp3762
a(I2063
I2083
tp3763
a(I743
I751
tp3764
a(I1313
I1339
tp3765
a(I1951
I1977
tp3766
a(I873
I908
tp3767
a(I1135
I1161
tp3768
a(I1739
I1758
tp3769
a(I718
I733
tp3770
a(I0
I0
tp3771
a(I8263
I8716
tp3772
a(I1628
I1629
tp3773
a(I1340
I1359
tp3774
a(I614
I735
tp3775
a(I37
I46
tp3776
a(I745
I778
tp3777
a(I111
I114
tp3778
a(I46
I46
tp3779
a(I839
I866
tp3780
a(I2567
I2704
tp3781
a(I953
I953
tp3782
a(I2
I4
tp3783
a(I907
I979
tp3784
a(I370
I379
tp3785
a(I157
I158
tp3786
a(I26
I42
tp3787
a(I50
I50
tp3788
a(I116
I116
tp3789
a(I95
I151
tp3790
a(I3415
I3559
tp3791
a(I5967
I6201
tp3792
a(I12632
I12847
tp3793
a(I9113
I9240
tp3794
a(I6781
I7053
tp3795
a(I3433
I3949
tp3796
a(I12223
I12688
tp3797
a(I17264
I17890
tp3798
a(I10282
I10113
tp3799
a(I10294
I10837
tp3800
a(I7281
I7650
tp3801
a(I21492
I21854
tp3802
a(I6543
I6878
tp3803
a(I12267
I12774
tp3804
a(I16235
I16700
tp3805
a(I22377
I22839
tp3806
a(I14087
I14695
tp3807
a(I9231
I9547
tp3808
a(I10437
I10717
tp3809
a(I4509
I4769
tp3810
a(I7645
I7969
tp3811
a(I12160
I12470
tp3812
a(I5225
I5313
tp3813
a(I11863
I12232
tp3814
a(I10727
I11111
tp3815
a(I11187
I11466
tp3816
a(I12481
I12847
tp3817
a(I11695
I12092
tp3818
a(I14547
I14853
tp3819
a(I7208
I7558
tp3820
a(I6861
I7071
tp3821
a(I1321
I1661
tp3822
a(I6842
I7086
tp3823
a(I7343
I7368
tp3824
a(I5702
I5836
tp3825
a(I2
I2
tp3826
a(I830
I844
tp3827
a(I1688
I1692
tp3828
a(I71
I74
tp3829
a(I8
I12
tp3830
a(I72
I72
tp3831
a(I135
I135
tp3832
a(I7
I7
tp3833
a(I307
I309
tp3834
a(I7
I8
tp3835
a(I4
I4
tp3836
a(I3250
I3325
tp3837
a(I259
I260
tp3838
a(I1501
I1491
tp3839
a(I254
I254
tp3840
a(I143
I213
tp3841
a(I142
I142
tp3842
a(I68
I68
tp3843
a(I506
I629
tp3844
a(I4
I14
tp3845
a(I375
I383
tp3846
a(I1
I1
tp3847
a(I4869
I4967
tp3848
a(I262
I330
tp3849
a(I664
I664
tp3850
a(I11252
I11467
tp3851
a(I10745
I10961
tp3852
a(I9560
I9784
tp3853
a(I388
I388
tp3854
a(I1125
I1092
tp3855
a(I202
I320
tp3856
a(I5
I5
tp3857
a(I30
I26
tp3858
a(I126
I126
tp3859
a(I6
I6
tp3860
a(I105
I106
tp3861
a(I58
I58
tp3862
a(I2
I2
tp3863
a(I1
I1
tp3864
a(I763
I875
tp3865
a(I2117
I2192
tp3866
a(I2724
I2808
tp3867
a(I1
I1
tp3868
a(I648
I651
tp3869
a(I11
I21
tp3870
a(I7
I7
tp3871
a(I1
I1
tp3872
a(I15636
I15964
tp3873
a(I8121
I8375
tp3874
a(I7625
I7863
tp3875
a(I5105
I5253
tp3876
a(I7139
I7312
tp3877
a(I3895
I4015
tp3878
a(I6488
I6638
tp3879
a(I5896
I5970
tp3880
a(I1406
I1456
tp3881
a(I960
I964
tp3882
a(I2567
I2624
tp3883
a(I4227
I4330
tp3884
a(I82
I171
tp3885
a(I613
I615
tp3886
a(I20
I22
tp3887
a(I0
I0
tp3888
a(I528
I551
tp3889
a(I75
I75
tp3890
a(I14
I16
tp3891
a(I17
I17
tp3892
a(I8
I8
tp3893
a(I1
I1
tp3894
a(I61
I61
tp3895
a(I5
I13
tp3896
a(I4271
I4373
tp3897
a(I2328
I2353
tp3898
a(I4
I6
tp3899
a(I5
I5
tp3900
a(I1
I1
tp3901
a(I197
I223
tp3902
a(I14709
I15297
tp3903
a(I7584
I7827
tp3904
a(I7715
I7801
tp3905
a(I9600
I9729
tp3906
a(I5461
I5583
tp3907
a(I10998
I11208
tp3908
a(I3673
I3935
tp3909
a(I8826
I8952
tp3910
a(I5409
I5594
tp3911
a(I11488
I11607
tp3912
a(I611
I917
tp3913
a(I11344
I11486
tp3914
a(I6948
I7137
tp3915
a(I979
I1114
tp3916
a(I6608
I6665
tp3917
a(I103
I107
tp3918
a(I5
I6
tp3919
a(I51
I51
tp3920
a(I2444
I2681
tp3921
a(I48
I48
tp3922
a(I3702
I3708
tp3923
a(I652
I654
tp3924
a(I1516
I1518
tp3925
a(I574
I582
tp3926
a(I1248
I1366
tp3927
a(I835
I836
tp3928
a(I14
I23
tp3929
a(I12
I12
tp3930
a(I689
I690
tp3931
a(I263
I361
tp3932
a(I1281
I1342
tp3933
a(I2
I13
tp3934
a(I6588
I6731
tp3935
a(I3996
I4059
tp3936
a(I164
I164
tp3937
a(I530
I619
tp3938
a(I31
I31
tp3939
a(I194
I197
tp3940
a(I262
I280
tp3941
a(I57
I57
tp3942
a(I12
I13
tp3943
a(I0
I0
tp3944
a(I42
I44
tp3945
a(I7077
I7269
tp3946
a(I7
I7
tp3947
a(I6293
I6514
tp3948
a(I8237
I8474
tp3949
a(I15249
I15657
tp3950
a(I2424
I2636
tp3951
a(I10916
I11234
tp3952
a(I5693
I5826
tp3953
a(I9843
I9988
tp3954
a(I5727
I5867
tp3955
a(I2963
I2980
tp3956
a(I775
I788
tp3957
a(I7087
I7182
tp3958
a(I552
I559
tp3959
a(I2812
I2953
tp3960
a(I8412
I8637
tp3961
a(I119
I152
tp3962
a(I11
I11
tp3963
a(I8
I8
tp3964
a(I1
I1
tp3965
a(I131
I133
tp3966
a(I7
I9
tp3967
a(I61
I61
tp3968
a(I42
I48
tp3969
a(I72
I77
tp3970
a(I97
I97
tp3971
a(I14
I14
tp3972
a(I1
I1
tp3973
a(I4
I4
tp3974
a(I4
I4
tp3975
a(I19
I19
tp3976
a(I12051
I12327
tp3977
a(I46
I60
tp3978
a(I6591
I7076
tp3979
a(I7293
I7461
tp3980
a(I8077
I8282
tp3981
a(I7222
I7475
tp3982
a(I4614
I4848
tp3983
a(I11276
I11509
tp3984
a(I10365
I10901
tp3985
a(I6036
I6208
tp3986
a(I6641
I6894
tp3987
a(I7092
I7331
tp3988
a(I8896
I9204
tp3989
a(I9079
I9294
tp3990
a(I5976
I6169
tp3991
a(I8314
I8884
tp3992
a(I3916
I3943
tp3993
a(I7229
I7560
tp3994
a(I1815
I2077
tp3995
a(I9305
I9648
tp3996
a(I9915
I10175
tp3997
a(I2190
I2402
tp3998
a(I6483
I6681
tp3999
a(I6882
I7065
tp4000
a(I4361
I4489
tp4001
a(I7925
I8103
tp4002
a(I7861
I8065
tp4003
a(I11483
I11913
tp4004
a(I7187
I7384
tp4005
a(I9333
I9578
tp4006
a(I8181
I8342
tp4007
a(I12098
I12431
tp4008
a(I2105
I2143
tp4009
a(I151
I151
tp4010
a(I26
I28
tp4011
a(I6
I6
tp4012
a(I2858
I2994
tp4013
a(I121
I144
tp4014
a(I1
I1
tp4015
a(I1212
I1251
tp4016
a(I26
I26
tp4017
a(I23
I29
tp4018
a(I218
I222
tp4019
a(I0
I0
tp4020
a(I812
I882
tp4021
a(I563
I570
tp4022
a(I31
I47
tp4023
a(I10974
I11446
tp4024
a(I4712
I5021
tp4025
a(I9075
I9317
tp4026
a(I9663
I9924
tp4027
a(I10645
I11079
tp4028
a(I10998
I11343
tp4029
a(I8604
I8843
tp4030
a(I9491
I9866
tp4031
a(I5148
I5246
tp4032
a(I13028
I13212
tp4033
a(I1170
I1180
tp4034
a(I1012
I1013
tp4035
a(I2
I2
tp4036
a(I719
I723
tp4037
a(I1666
I1686
tp4038
a(I1316
I1332
tp4039
a(I573
I577
tp4040
a(I455
I459
tp4041
a(I1338
I1357
tp4042
a(I14
I14
tp4043
a(I3504
I3433
tp4044
a(I310
I331
tp4045
a(I251
I326
tp4046
a(I128
I128
tp4047
a(I12
I13
tp4048
a(I149
I151
tp4049
a(I1364
I1370
tp4050
a(I10393
I10529
tp4051
a(I8686
I8792
tp4052
a(I6473
I6637
tp4053
a(I10949
I11140
tp4054
a(I2043
I2134
tp4055
a(I10024
I10034
tp4056
a(I9881
I10025
tp4057
a(I2942
I2953
tp4058
a(I307
I307
tp4059
a(I1303
I1337
tp4060
a(I1132
I1132
tp4061
a(I1024
I1027
tp4062
a(I1009
I1005
tp4063
a(I1880
I1886
tp4064
a(I1487
I1497
tp4065
a(I2
I9
tp4066
a(I216
I218
tp4067
a(I861
I871
tp4068
a(I5
I56
tp4069
a(I11
I238
tp4070
a(I116
I120
tp4071
a(I344
I346
tp4072
a(I46
I57
tp4073
a(I18
I21
tp4074
a(I7
I7
tp4075
a(I11
I11
tp4076
a(I1
I1
tp4077
a(I5174
I5400
tp4078
a(I2675
I2862
tp4079
a(I8278
I8571
tp4080
a(I6499
I6608
tp4081
a(I5312
I5529
tp4082
a(I6139
I6282
tp4083
a(I7028
I7257
tp4084
a(I4687
I4816
tp4085
a(I7106
I7212
tp4086
a(I6347
I6526
tp4087
a(I7831
I8006
tp4088
a(I7723
I7951
tp4089
a(I6768
I6927
tp4090
a(I7535
I7672
tp4091
a(I12585
I12821
tp4092
a(I501
I520
tp4093
a(I2775
I2872
tp4094
a(I791
I826
tp4095
a(I8410
I8561
tp4096
a(I702
I1137
tp4097
a(I229
I236
tp4098
a(I859
I858
tp4099
a(I227
I228
tp4100
a(I2268
I2502
tp4101
a(I12
I12
tp4102
a(I274
I277
tp4103
a(I5
I5
tp4104
a(I120
I126
tp4105
a(I1389
I1450
tp4106
a(I92
I98
tp4107
a(I4170
I4230
tp4108
a(I3278
I3367
tp4109
a(I2520
I2602
tp4110
a(I3321
I3378
tp4111
a(I102
I112
tp4112
a(I287
I293
tp4113
a(I1723
I1730
tp4114
a(I919
I919
tp4115
a(I2114
I2119
tp4116
a(I5542
I5609
tp4117
a(I400
I400
tp4118
a(I18
I19
tp4119
a(I1087
I1094
tp4120
a(I2518
I2590
tp4121
a(I748
I806
tp4122
a(I2015
I2026
tp4123
a(I2791
I2831
tp4124
a(I1293
I1328
tp4125
a(I2126
I2174
tp4126
a(I24
I28
tp4127
a(I1033
I1060
tp4128
a(I20
I20
tp4129
a(I14427
I14958
tp4130
a(I4988
I5308
tp4131
a(I2544
I2847
tp4132
a(I10499
I10824
tp4133
a(I11244
I11441
tp4134
a(I13297
I13526
tp4135
a(I12908
I13145
tp4136
a(I9786
I10040
tp4137
a(I1772
I1885
tp4138
a(I10544
I10689
tp4139
a(I9244
I9460
tp4140
a(I1098
I1267
tp4141
a(I937
I1020
tp4142
a(I972
I1013
tp4143
a(I2997
I3217
tp4144
a(I8067
I8164
tp4145
a(I1062
I1108
tp4146
a(I7527
I7704
tp4147
a(I732
I746
tp4148
a(I3987
I4115
tp4149
a(I4305
I4363
tp4150
a(I209
I215
tp4151
a(I3036
I3177
tp4152
a(I545
I906
tp4153
a(I146
I157
tp4154
a(I5470
I5635
tp4155
a(I3486
I3571
tp4156
a(I109
I124
tp4157
a(I2627
I2705
tp4158
a(I162
I164
tp4159
a(I3723
I3828
tp4160
a(I6638
I6821
tp4161
a(I7914
I8163
tp4162
a(I7195
I7361
tp4163
a(I3950
I4064
tp4164
a(I9224
I9446
tp4165
a(I4008
I4156
tp4166
a(I84
I86
tp4167
a(I454
I459
tp4168
a(I289
I299
tp4169
a(I8
I8
tp4170
a(I4546
I4573
tp4171
a(I11
I11
tp4172
a(I0
I0
tp4173
a(I7
I7
tp4174
a(I888
I899
tp4175
a(I129
I129
tp4176
a(I11069
I11548
tp4177
a(I1754
I1757
tp4178
a(I817
I963
tp4179
a(I0
I0
tp4180
a(I6692
I6873
tp4181
a(I14455
I14601
tp4182
a(I4684
I4865
tp4183
a(I6691
I6859
tp4184
a(I8399
I8547
tp4185
a(I5267
I5572
tp4186
a(I7325
I7431
tp4187
a(I6507
I6715
tp4188
a(I3444
I3615
tp4189
a(I3718
I3857
tp4190
a(I7328
I7656
tp4191
a(I8219
I8431
tp4192
a(I2509
I2520
tp4193
a(I13674
I13985
tp4194
a(I7527
I7769
tp4195
a(I9465
I9670
tp4196
a(I2201
I2392
tp4197
a(I13044
I13319
tp4198
a(I101
I112
tp4199
a(I8303
I8472
tp4200
a(I582
I584
tp4201
a(I249
I250
tp4202
a(I508
I702
tp4203
a(I4075
I4125
tp4204
a(I11224
I11483
tp4205
a(I0
I197
tp4206
a(I176
I184
tp4207
a(I192
I195
tp4208
a(I4
I4
tp4209
a(I680
I683
tp4210
a(I3319
I3454
tp4211
a(I178
I178
tp4212
a(I1355
I1439
tp4213
a(I3923
I4055
tp4214
a(I2909
I2943
tp4215
a(I4070
I4161
tp4216
a(I3351
I3393
tp4217
a(I2721
I2773
tp4218
a(I2103
I2174
tp4219
a(I48
I66
tp4220
a(I958
I970
tp4221
a(I161
I352
tp4222
a(I431
I450
tp4223
a(I1600
I1647
tp4224
a(I5
I5
tp4225
a(I5258
I5453
tp4226
a(I8
I8
tp4227
a(I160
I160
tp4228
a(I2846
I2921
tp4229
a(I465
I471
tp4230
a(I0
I3
tp4231
a(I114
I252
tp4232
a(I3101
I3197
tp4233
a(I836
I836
tp4234
a(I2768
I2899
tp4235
a(I153
I153
tp4236
a(I1590
I1657
tp4237
a(I761
I798
tp4238
a(I244
I270
tp4239
a(I10
I10
tp4240
a(I16
I20
tp4241
a(I87
I87
tp4242
a(I1607
I1645
tp4243
a(I1614
I1685
tp4244
a(I18
I26
tp4245
a(I14
I35
tp4246
a(I0
I0
tp4247
a(I5504
I5624
tp4248
a(I8762
I9173
tp4249
a(I5744
I5863
tp4250
a(I8178
I8616
tp4251
a(I5418
I5518
tp4252
a(I9175
I9296
tp4253
a(I6070
I6191
tp4254
a(I2626
I2789
tp4255
a(I12443
I12723
tp4256
a(I692
I711
tp4257
a(I9026
I9252
tp4258
a(I8781
I8935
tp4259
a(I9220
I9522
tp4260
a(I7300
I7544
tp4261
a(I210
I244
tp4262
a(I15108
I15281
tp4263
a(I2853
I2997
tp4264
a(I10708
I10912
tp4265
a(I5069
I5192
tp4266
a(I10708
I10967
tp4267
a(I11245
I11548
tp4268
a(I10997
I11297
tp4269
a(I9540
I9760
tp4270
a(I3066
I3114
tp4271
a(I7575
I7786
tp4272
a(I7615
I7832
tp4273
a(I7247
I7453
tp4274
a(I6468
I6585
tp4275
a(I7453
I7726
tp4276
a(I4614
I4915
tp4277
a(I4287
I4456
tp4278
a(I3580
I3725
tp4279
a(I669
I672
tp4280
a(I4
I4
tp4281
a(I5
I5
tp4282
a(I0
I0
tp4283
a(I0
I0
tp4284
a(I165
I169
tp4285
a(I621
I624
tp4286
a(I76
I184
tp4287
a(I1014
I1020
tp4288
a(I7
I8
tp4289
a(I4
I4
tp4290
a(I145
I148
tp4291
a(I6
I5
tp4292
a(I56
I56
tp4293
a(I31
I76
tp4294
a(I0
I0
tp4295
a(I1068
I1075
tp4296
a(I14
I14
tp4297
a(I11147
I11293
tp4298
a(I798
I798
tp4299
a(I440
I440
tp4300
a(I0
I1
tp4301
a(I276
I276
tp4302
a(I3
I4
tp4303
a(I1158
I1275
tp4304
a(I4048
I4149
tp4305
a(I3189
I3285
tp4306
a(I3948
I4015
tp4307
a(I3867
I3921
tp4308
a(I3020
I3140
tp4309
a(I4903
I5069
tp4310
a(I3903
I4011
tp4311
a(I3590
I3651
tp4312
a(I278
I282
tp4313
a(I1660
I1676
tp4314
a(I1699
I1707
tp4315
a(I686
I689
tp4316
a(I7225
I7604
tp4317
a(I2661
I2746
tp4318
a(I7855
I8142
tp4319
a(I4285
I4382
tp4320
a(I140
I253
tp4321
a(I2855
I2945
tp4322
a(I575
I582
tp4323
a(I6648
I6788
tp4324
a(I1409
I1544
tp4325
a(I0
I0
tp4326
a(I752
I889
tp4327
a(I3156
I3270
tp4328
a(I1322
I1440
tp4329
a(I759
I767
tp4330
a(I4165
I4240
tp4331
a(I229
I231
tp4332
a(I2065
I2197
tp4333
a(I4946
I5180
tp4334
a(I1870
I1921
tp4335
a(I191
I191
tp4336
a(I1
I6
tp4337
a(I95
I95
tp4338
a(I1168
I1202
tp4339
a(I749
I776
tp4340
a(I860
I866
tp4341
a(I1
I1
tp4342
a(I16
I16
tp4343
a(I2284
I2387
tp4344
a(I943
I966
tp4345
a(I2287
I2434
tp4346
a(I1582
I1582
tp4347
a(I1
I1
tp4348
a(I87
I87
tp4349
a(I4974
I5025
tp4350
a(I2145
I2227
tp4351
a(I764
I828
tp4352
a(I17
I17
tp4353
a(I591
I591
tp4354
a(I101
I101
tp4355
a(I170
I176
tp4356
a(I10
I10
tp4357
a(I2
I2
tp4358
a(I9
I10
tp4359
a(I0
I0
tp4360
a(I102
I102
tp4361
a(I4384
I4451
tp4362
a(I4590
I4631
tp4363
a(I4587
I4649
tp4364
a(I107
I108
tp4365
a(I8054
I8309
tp4366
a(I7257
I7404
tp4367
a(I7395
I7525
tp4368
a(I1311
I1320
tp4369
a(I280
I280
tp4370
a(I828
I836
tp4371
a(I21
I21
tp4372
a(I4
I4
tp4373
a(I0
I0
tp4374
a(I1455
I1524
tp4375
a(I6
I7
tp4376
a(I3672
I3871
tp4377
a(I1207
I1297
tp4378
a(I1619
I1667
tp4379
a(I1682
I1740
tp4380
a(I4638
I4702
tp4381
a(I799
I868
tp4382
a(I1099
I1127
tp4383
a(I5433
I5567
tp4384
a(I1089
I1147
tp4385
a(I6
I6
tp4386
a(I519
I527
tp4387
a(I372
I374
tp4388
a(I18
I18
tp4389
a(I862
I928
tp4390
a(I13
I13
tp4391
a(I7654
I8010
tp4392
a(I7139
I7336
tp4393
a(I4737
I4892
tp4394
a(I1715
I1757
tp4395
a(I10166
I10623
tp4396
a(I5100
I5231
tp4397
a(I1812
I1899
tp4398
a(I3627
I3797
tp4399
a(I3861
I3923
tp4400
a(I6498
I6731
tp4401
a(I3419
I3571
tp4402
a(I3977
I4120
tp4403
a(I5522
I5825
tp4404
a(I3889
I4041
tp4405
a(I895
I1030
tp4406
a(I3517
I3770
tp4407
a(I5423
I5565
tp4408
a(I3111
I3241
tp4409
a(I906
I980
tp4410
a(I4165
I4261
tp4411
a(I4537
I4611
tp4412
a(I1394
I1610
tp4413
a(I4479
I4582
tp4414
a(I6816
I6968
tp4415
a(I11753
I11954
tp4416
a(I3390
I3478
tp4417
a(I2553
I2657
tp4418
a(I3524
I3648
tp4419
a(I4686
I4787
tp4420
a(I3773
I3903
tp4421
a(I0
I0
tp4422
asVchipotle
p4423
(lp4424
(I348
I352
tp4425
a(I24
I25
tp4426
a(I1
I1
tp4427
a(I170
I194
tp4428
a(I7048
I7205
tp4429
a(I1111
I1129
tp4430
a(I1543
I1688
tp4431
a(I8465
I8541
tp4432
a(I338
I393
tp4433
a(I4626
I4670
tp4434
a(I297
I396
tp4435
a(I0
I0
tp4436
a(I1506
I1526
tp4437
a(I297
I302
tp4438
a(I1
I1
tp4439
a(I5686
I5865
tp4440
a(I2930
I3007
tp4441
a(I2919
I2967
tp4442
a(I12296
I12750
tp4443
a(I1137
I1232
tp4444
a(I2912
I2918
tp4445
a(I4370
I4434
tp4446
a(I2209
I2314
tp4447
a(I5511
I5650
tp4448
a(I6016
I6174
tp4449
a(I3685
I3784
tp4450
a(I1709
I1765
tp4451
a(I613
I674
tp4452
a(I804
I835
tp4453
a(I5350
I5416
tp4454
a(I5668
I5772
tp4455
a(I1516
I1637
tp4456
a(I1239
I1264
tp4457
a(I5910
I6009
tp4458
a(I875
I895
tp4459
a(I2903
I2946
tp4460
a(I4867
I4977
tp4461
a(I1936
I1996
tp4462
a(I255
I280
tp4463
a(I1401
I1431
tp4464
a(I97
I177
tp4465
a(I231
I269
tp4466
a(I311
I323
tp4467
a(I362
I394
tp4468
a(I3061
I3093
tp4469
a(I2071
I2136
tp4470
a(I4149
I4213
tp4471
a(I3160
I3247
tp4472
a(I6701
I6955
tp4473
a(I1126
I1211
tp4474
a(I7190
I7330
tp4475
a(I4963
I5074
tp4476
a(I2604
I2665
tp4477
a(I3692
I3837
tp4478
a(I3012
I3098
tp4479
a(I6273
I6417
tp4480
a(I5808
I5903
tp4481
a(I2695
I2777
tp4482
a(I6016
I6126
tp4483
a(I3114
I3215
tp4484
a(I4822
I4918
tp4485
a(I6434
I6694
tp4486
a(I5927
I6100
tp4487
a(I2658
I2741
tp4488
a(I7139
I7290
tp4489
a(I336
I411
tp4490
a(I3890
I3966
tp4491
a(I5283
I5337
tp4492
a(I5292
I5445
tp4493
a(I5406
I5526
tp4494
a(I6239
I6354
tp4495
a(I3088
I3158
tp4496
a(I3890
I3967
tp4497
a(I5119
I5240
tp4498
a(I8044
I8161
tp4499
a(I1615
I1655
tp4500
a(I6267
I6407
tp4501
a(I3856
I3953
tp4502
a(I65
I88
tp4503
a(I3063
I3138
tp4504
a(I1734
I1741
tp4505
a(I9
I10
tp4506
a(I4276
I4407
tp4507
a(I4091
I4135
tp4508
a(I721
I792
tp4509
a(I1081
I1163
tp4510
a(I1354
I1381
tp4511
a(I0
I0
tp4512
a(I13
I14
tp4513
a(I5606
I5691
tp4514
a(I3
I3
tp4515
a(I4838
I4927
tp4516
a(I1197
I1224
tp4517
a(I1085
I1140
tp4518
a(I89
I143
tp4519
a(I1
I1
tp4520
a(I39
I88
tp4521
a(I15
I16
tp4522
a(I3781
I3873
tp4523
a(I1233
I1239
tp4524
a(I9196
I9374
tp4525
a(I7517
I7679
tp4526
a(I3940
I3994
tp4527
a(I2986
I3068
tp4528
a(I2461
I2480
tp4529
a(I2886
I2912
tp4530
a(I5332
I5422
tp4531
a(I46
I51
tp4532
a(I590
I691
tp4533
a(I0
I0
tp4534
a(I0
I0
tp4535
a(I640
I665
tp4536
a(I22
I110
tp4537
a(I212
I287
tp4538
a(I3
I4
tp4539
a(I5062
I5198
tp4540
a(I257
I311
tp4541
a(I779
I825
tp4542
a(I112
I149
tp4543
a(I0
I0
tp4544
a(I2495
I2538
tp4545
a(I3177
I3225
tp4546
a(I1251
I1280
tp4547
a(I175
I280
tp4548
a(I2855
I2904
tp4549
a(I0
I0
tp4550
a(I3671
I3725
tp4551
a(I93
I131
tp4552
a(I47
I68
tp4553
a(I399
I481
tp4554
a(I3434
I3522
tp4555
a(I2651
I2726
tp4556
a(I2529
I2601
tp4557
a(I1082
I1147
tp4558
a(I836
I854
tp4559
a(I2748
I2772
tp4560
a(I102
I126
tp4561
a(I678
I697
tp4562
a(I1
I1
tp4563
a(I2951
I3016
tp4564
a(I2362
I2395
tp4565
a(I1613
I1655
tp4566
a(I2099
I2136
tp4567
a(I1446
I1460
tp4568
a(I1491
I1524
tp4569
a(I2361
I2428
tp4570
a(I2287
I2308
tp4571
a(I1231
I1260
tp4572
a(I3988
I4081
tp4573
a(I3781
I3876
tp4574
a(I8349
I8488
tp4575
a(I4950
I4983
tp4576
a(I5064
I5156
tp4577
a(I8036
I8199
tp4578
a(I8250
I8388
tp4579
a(I8274
I8468
tp4580
a(I5250
I5364
tp4581
a(I4121
I4192
tp4582
a(I5642
I5721
tp4583
a(I6644
I6775
tp4584
a(I4521
I4571
tp4585
a(I7487
I7672
tp4586
a(I4254
I4332
tp4587
a(I6610
I6773
tp4588
a(I121
I123
tp4589
a(I5
I5
tp4590
a(I4
I4
tp4591
a(I7095
I7158
tp4592
a(I143
I158
tp4593
a(I2046
I2121
tp4594
a(I4058
I4116
tp4595
a(I5392
I5460
tp4596
a(I1412
I1500
tp4597
a(I4387
I4463
tp4598
a(I2999
I3053
tp4599
a(I653
I695
tp4600
a(I165
I218
tp4601
a(I2185
I2242
tp4602
a(I110
I146
tp4603
a(I2
I2
tp4604
a(I4429
I4504
tp4605
a(I2772
I2819
tp4606
a(I1506
I1562
tp4607
a(I1671
I1693
tp4608
a(I929
I964
tp4609
a(I4813
I4852
tp4610
a(I3573
I3636
tp4611
a(I328
I350
tp4612
a(I2318
I2350
tp4613
a(I4882
I5024
tp4614
a(I5309
I5406
tp4615
a(I3512
I3597
tp4616
a(I4095
I4221
tp4617
a(I228
I236
tp4618
a(I2530
I2554
tp4619
a(I4769
I4804
tp4620
a(I1
I1
tp4621
a(I591
I654
tp4622
a(I389
I464
tp4623
a(I2268
I2387
tp4624
a(I4
I4
tp4625
a(I1755
I1770
tp4626
a(I2552
I2646
tp4627
a(I4812
I4858
tp4628
a(I3814
I3906
tp4629
a(I855
I1013
tp4630
a(I9491
I9827
tp4631
a(I11333
I11601
tp4632
a(I6800
I6934
tp4633
a(I8924
I9147
tp4634
a(I2810
I2942
tp4635
a(I5029
I5147
tp4636
a(I8630
I8792
tp4637
a(I7740
I7890
tp4638
a(I4804
I4935
tp4639
a(I6410
I6583
tp4640
a(I4789
I4872
tp4641
a(I8264
I8369
tp4642
a(I4478
I4560
tp4643
a(I5092
I5307
tp4644
a(I3857
I3938
tp4645
a(I7309
I7445
tp4646
a(I7462
I7635
tp4647
a(I1946
I2058
tp4648
a(I3690
I3771
tp4649
a(I5449
I5501
tp4650
a(I5865
I5987
tp4651
a(I3122
I3190
tp4652
a(I2862
I2997
tp4653
a(I10373
I10569
tp4654
a(I10989
I10955
tp4655
a(I4549
I4582
tp4656
a(I1924
I1995
tp4657
a(I1052
I1063
tp4658
a(I5379
I5483
tp4659
a(I3806
I3859
tp4660
a(I930
I964
tp4661
a(I2992
I3068
tp4662
a(I4778
I4826
tp4663
a(I266
I328
tp4664
a(I14
I14
tp4665
a(I265
I369
tp4666
a(I2323
I2347
tp4667
a(I3711
I3777
tp4668
a(I2100
I2148
tp4669
a(I2042
I2141
tp4670
a(I4914
I5044
tp4671
a(I3967
I4099
tp4672
a(I6949
I7087
tp4673
a(I463
I536
tp4674
a(I3697
I3793
tp4675
a(I3496
I3554
tp4676
a(I5596
I5679
tp4677
a(I4577
I4662
tp4678
a(I3546
I3566
tp4679
a(I4552
I4627
tp4680
a(I3578
I3632
tp4681
a(I69
I102
tp4682
a(I7223
I7258
tp4683
a(I944
I1108
tp4684
a(I8
I8
tp4685
a(I676
I759
tp4686
a(I2
I2
tp4687
a(I6
I6
tp4688
a(I1030
I1207
tp4689
a(I237
I269
tp4690
a(I2656
I2727
tp4691
a(I7386
I7473
tp4692
a(I8400
I8572
tp4693
a(I6807
I6863
tp4694
a(I6333
I6474
tp4695
a(I5785
I5876
tp4696
a(I9243
I9349
tp4697
a(I3579
I3611
tp4698
a(I1084
I1200
tp4699
a(I2646
I2760
tp4700
a(I191
I267
tp4701
a(I1947
I2035
tp4702
a(I1619
I1640
tp4703
a(I13
I43
tp4704
a(I317
I387
tp4705
a(I478
I585
tp4706
a(I185
I220
tp4707
a(I119
I134
tp4708
a(I296
I332
tp4709
a(I3
I3
tp4710
a(I13
I15
tp4711
a(I0
I0
tp4712
a(I69
I82
tp4713
a(I1133
I1241
tp4714
a(I0
I0
tp4715
a(I714
I812
tp4716
a(I5086
I5187
tp4717
a(I6009
I6152
tp4718
a(I329
I355
tp4719
a(I6217
I6334
tp4720
a(I2078
I2172
tp4721
a(I11103
I11258
tp4722
a(I4091
I4129
tp4723
a(I4996
I5097
tp4724
a(I6
I9
tp4725
a(I6188
I6317
tp4726
a(I6054
I6154
tp4727
a(I6211
I6326
tp4728
a(I512
I602
tp4729
a(I82
I112
tp4730
a(I991
I1076
tp4731
a(I18
I18
tp4732
a(I631
I710
tp4733
a(I10
I10
tp4734
a(I11898
I11986
tp4735
a(I4
I4
tp4736
a(I21
I29
tp4737
a(I5
I8
tp4738
a(I7655
I7799
tp4739
a(I3188
I3242
tp4740
a(I4581
I4660
tp4741
a(I4483
I4536
tp4742
a(I2688
I2730
tp4743
a(I612
I669
tp4744
a(I5639
I5734
tp4745
a(I151
I214
tp4746
a(I536
I602
tp4747
a(I929
I981
tp4748
a(I0
I0
tp4749
a(I8412
I8498
tp4750
a(I5333
I5444
tp4751
a(I3959
I4054
tp4752
a(I3551
I3618
tp4753
a(I2186
I2235
tp4754
a(I412
I466
tp4755
a(I395
I475
tp4756
a(I5
I5
tp4757
a(I9
I9
tp4758
a(I330
I362
tp4759
a(I2249
I2282
tp4760
a(I193
I227
tp4761
a(I23
I57
tp4762
a(I435
I473
tp4763
a(I7
I19
tp4764
a(I3946
I4006
tp4765
a(I3136
I3194
tp4766
a(I3639
I3733
tp4767
a(I6220
I6333
tp4768
a(I3465
I3602
tp4769
a(I5639
I5695
tp4770
a(I12843
I13080
tp4771
a(I6541
I6675
tp4772
a(I6626
I6802
tp4773
a(I2293
I2365
tp4774
a(I7031
I7221
tp4775
a(I410
I507
tp4776
a(I4305
I4415
tp4777
a(I6273
I6428
tp4778
a(I3875
I3913
tp4779
a(I7015
I7185
tp4780
a(I5915
I6010
tp4781
a(I4567
I4689
tp4782
a(I5759
I5849
tp4783
a(I6347
I6429
tp4784
a(I6312
I6390
tp4785
a(I7277
I7484
tp4786
a(I4450
I4530
tp4787
a(I2398
I2436
tp4788
a(I3576
I3628
tp4789
a(I6446
I6531
tp4790
a(I5270
I5390
tp4791
a(I5320
I5454
tp4792
a(I3279
I3336
tp4793
a(I5578
I5671
tp4794
a(I2242
I2321
tp4795
a(I1159
I1214
tp4796
a(I2503
I2561
tp4797
a(I451
I542
tp4798
a(I1239
I1310
tp4799
a(I7025
I7331
tp4800
a(I1412
I1532
tp4801
a(I212
I235
tp4802
a(I59
I79
tp4803
a(I23
I23
tp4804
a(I23
I40
tp4805
asVcostco
p4806
(lp4807
s.